[+] #0#:#4#8#N#<#L#J#D#@#B#F#2#>#H#6!
   0:   66 a1 ef be ad de 00 00 00 00   movabs ax, ds:secret[0]
   a:   66 c1 c8 07             ror    ax, 0x7
   e:   66 a3 ef be ad de 00 00 00 00   movabs ds:secret[0], ax
  18:   66 a1 ef be ad de 00 00 00 00   movabs ax, ds:secret[10]
  22:   66 c1 c8 07             ror    ax, 0x7
  26:   66 a3 ef be ad de 00 00 00 00   movabs ds:secret[10], ax
  30:   66 a1 ef be ad de 00 00 00 00   movabs ax, ds:secret[4]
  3a:   66 c1 c8 07             ror    ax, 0x7
  3e:   66 a3 ef be ad de 00 00 00 00   movabs ds:secret[4], ax
  48:   66 a1 ef be ad de 00 00 00 00   movabs ax, ds:secret[8]
  52:   66 c1 c8 07             ror    ax, 0x7
  56:   66 a3 ef be ad de 00 00 00 00   movabs ds:secret[8], ax
  60:   66 a1 ef be ad de 00 00 00 00   movabs ax, ds:secret[30]
  6a:   66 c1 c8 07             ror    ax, 0x7
  6e:   66 a3 ef be ad de 00 00 00 00   movabs ds:secret[30], ax
  78:   66 a1 ef be ad de 00 00 00 00   movabs ax, ds:secret[12]
  82:   66 c1 c8 07             ror    ax, 0x7
  86:   66 a3 ef be ad de 00 00 00 00   movabs ds:secret[12], ax
  90:   66 a1 ef be ad de 00 00 00 00   movabs ax, ds:secret[28]
  9a:   66 c1 c8 07             ror    ax, 0x7
  9e:   66 a3 ef be ad de 00 00 00 00   movabs ds:secret[28], ax
  a8:   66 a1 ef be ad de 00 00 00 00   movabs ax, ds:secret[26]
  b2:   66 c1 c8 07             ror    ax, 0x7
  b6:   66 a3 ef be ad de 00 00 00 00   movabs ds:secret[26], ax
  c0:   66 a1 ef be ad de 00 00 00 00   movabs ax, ds:secret[20]
  ca:   66 c1 c8 07             ror    ax, 0x7
  ce:   66 a3 ef be ad de 00 00 00 00   movabs ds:secret[20], ax
  d8:   66 a1 ef be ad de 00 00 00 00   movabs ax, ds:secret[16]
  e2:   66 c1 c8 07             ror    ax, 0x7
  e6:   66 a3 ef be ad de 00 00 00 00   movabs ds:secret[16], ax
  f0:   66 a1 ef be ad de 00 00 00 00   movabs ax, ds:secret[18]
  fa:   66 c1 c8 07             ror    ax, 0x7
  fe:   66 a3 ef be ad de 00 00 00 00   movabs ds:secret[18], ax
 108:   66 a1 ef be ad de 00 00 00 00   movabs ax, ds:secret[22]
 112:   66 c1 c8 07             ror    ax, 0x7
 116:   66 a3 ef be ad de 00 00 00 00   movabs ds:secret[22], ax
 120:   66 a1 ef be ad de 00 00 00 00   movabs ax, ds:secret[2]
 12a:   66 c1 c8 07             ror    ax, 0x7
 12e:   66 a3 ef be ad de 00 00 00 00   movabs ds:secret[2], ax
 138:   66 a1 ef be ad de 00 00 00 00   movabs ax, ds:secret[14]
 142:   66 c1 c8 07             ror    ax, 0x7
 146:   66 a3 ef be ad de 00 00 00 00   movabs ds:secret[14], ax
 150:   66 a1 ef be ad de 00 00 00 00   movabs ax, ds:secret[24]
 15a:   66 c1 c8 07             ror    ax, 0x7
 15e:   66 a3 ef be ad de 00 00 00 00   movabs ds:secret[24], ax
 168:   66 a1 ef be ad de 00 00 00 00   movabs ax, ds:secret[6]
 172:   66 c1 c8 07             ror    ax, 0x7
 176:   66 a3 ef be ad de 00 00 00 00   movabs ds:secret[6], ax


[+] CBKMNLHOIAJ@DFGE?8:67=<>93;1452-4-:-8-2-F-6-B-L-H-J->-<-D-@-ND&-D-E@&-@-AB&-B-CF&-F-GN&-N-O:&-:-;L&-L-M<&-<-=0&-0-1>&->-?6&-6-72&-2-34&-4-58&-8-9J&-J-KH&-H-I!
   0:   a0 ef be ad de 00 00 00 00      movabs al, ds:secret[19]
   9:   48 ff cc                dec    rsp
   c:   88 04 24                mov    BYTE PTR [rsp], al
   f:   a0 ef be ad de 00 00 00 00      movabs al, ds:secret[18]
  18:   48 ff cc                dec    rsp
  1b:   88 04 24                mov    BYTE PTR [rsp], al
  1e:   a0 ef be ad de 00 00 00 00      movabs al, ds:secret[27]
  27:   48 ff cc                dec    rsp
  2a:   88 04 24                mov    BYTE PTR [rsp], al
  2d:   a0 ef be ad de 00 00 00 00      movabs al, ds:secret[29]
  36:   48 ff cc                dec    rsp
  39:   88 04 24                mov    BYTE PTR [rsp], al
  3c:   a0 ef be ad de 00 00 00 00      movabs al, ds:secret[30]
  45:   48 ff cc                dec    rsp
  48:   88 04 24                mov    BYTE PTR [rsp], al
  4b:   a0 ef be ad de 00 00 00 00      movabs al, ds:secret[28]
  54:   48 ff cc                dec    rsp
  57:   88 04 24                mov    BYTE PTR [rsp], al
  5a:   a0 ef be ad de 00 00 00 00      movabs al, ds:secret[24]
  63:   48 ff cc                dec    rsp
  66:   88 04 24                mov    BYTE PTR [rsp], al
  69:   a0 ef be ad de 00 00 00 00      movabs al, ds:secret[31]
  72:   48 ff cc                dec    rsp
  75:   88 04 24                mov    BYTE PTR [rsp], al
  78:   a0 ef be ad de 00 00 00 00      movabs al, ds:secret[25]
  81:   48 ff cc                dec    rsp
  84:   88 04 24                mov    BYTE PTR [rsp], al
  87:   a0 ef be ad de 00 00 00 00      movabs al, ds:secret[17]
  90:   48 ff cc                dec    rsp
  93:   88 04 24                mov    BYTE PTR [rsp], al
  96:   a0 ef be ad de 00 00 00 00      movabs al, ds:secret[26]
  9f:   48 ff cc                dec    rsp
  a2:   88 04 24                mov    BYTE PTR [rsp], al
  a5:   a0 ef be ad de 00 00 00 00      movabs al, ds:secret[16]
  ae:   48 ff cc                dec    rsp
  b1:   88 04 24                mov    BYTE PTR [rsp], al
  b4:   a0 ef be ad de 00 00 00 00      movabs al, ds:secret[20]
  bd:   48 ff cc                dec    rsp
  c0:   88 04 24                mov    BYTE PTR [rsp], al
  c3:   a0 ef be ad de 00 00 00 00      movabs al, ds:secret[22]
  cc:   48 ff cc                dec    rsp
  cf:   88 04 24                mov    BYTE PTR [rsp], al
  d2:   a0 ef be ad de 00 00 00 00      movabs al, ds:secret[23]
  db:   48 ff cc                dec    rsp
  de:   88 04 24                mov    BYTE PTR [rsp], al
  e1:   a0 ef be ad de 00 00 00 00      movabs al, ds:secret[21]
  ea:   48 ff cc                dec    rsp
  ed:   88 04 24                mov    BYTE PTR [rsp], al
  f0:   a0 ef be ad de 00 00 00 00      movabs al, ds:secret[15]
  f9:   48 ff cc                dec    rsp
  fc:   88 04 24                mov    BYTE PTR [rsp], al
  ff:   a0 ef be ad de 00 00 00 00      movabs al, ds:secret[8]
 108:   48 ff cc                dec    rsp
 10b:   88 04 24                mov    BYTE PTR [rsp], al
 10e:   a0 ef be ad de 00 00 00 00      movabs al, ds:secret[10]
 117:   48 ff cc                dec    rsp
 11a:   88 04 24                mov    BYTE PTR [rsp], al
 11d:   a0 ef be ad de 00 00 00 00      movabs al, ds:secret[6]
 126:   48 ff cc                dec    rsp
 129:   88 04 24                mov    BYTE PTR [rsp], al
 12c:   a0 ef be ad de 00 00 00 00      movabs al, ds:secret[7]
 135:   48 ff cc                dec    rsp
 138:   88 04 24                mov    BYTE PTR [rsp], al
 13b:   a0 ef be ad de 00 00 00 00      movabs al, ds:secret[13]
 144:   48 ff cc                dec    rsp
 147:   88 04 24                mov    BYTE PTR [rsp], al
 14a:   a0 ef be ad de 00 00 00 00      movabs al, ds:secret[12]
 153:   48 ff cc                dec    rsp
 156:   88 04 24                mov    BYTE PTR [rsp], al
 159:   a0 ef be ad de 00 00 00 00      movabs al, ds:secret[14]
 162:   48 ff cc                dec    rsp
 165:   88 04 24                mov    BYTE PTR [rsp], al
 168:   a0 ef be ad de 00 00 00 00      movabs al, ds:secret[9]
 171:   48 ff cc                dec    rsp
 174:   88 04 24                mov    BYTE PTR [rsp], al
 177:   a0 ef be ad de 00 00 00 00      movabs al, ds:secret[3]
 180:   48 ff cc                dec    rsp
 183:   88 04 24                mov    BYTE PTR [rsp], al
 186:   a0 ef be ad de 00 00 00 00      movabs al, ds:secret[11]
 18f:   48 ff cc                dec    rsp
 192:   88 04 24                mov    BYTE PTR [rsp], al
 195:   a0 ef be ad de 00 00 00 00      movabs al, ds:secret[1]
 19e:   48 ff cc                dec    rsp
 1a1:   88 04 24                mov    BYTE PTR [rsp], al
 1a4:   a0 ef be ad de 00 00 00 00      movabs al, ds:secret[4]
 1ad:   48 ff cc                dec    rsp
 1b0:   88 04 24                mov    BYTE PTR [rsp], al
 1b3:   a0 ef be ad de 00 00 00 00      movabs al, ds:secret[5]
 1bc:   48 ff cc                dec    rsp
 1bf:   88 04 24                mov    BYTE PTR [rsp], al
 1c2:   a0 ef be ad de 00 00 00 00      movabs al, ds:secret[2]
 1cb:   48 ff cc                dec    rsp
 1ce:   88 04 24                mov    BYTE PTR [rsp], al
 1d1:   8a 04 24                mov    al, BYTE PTR [rsp]
 1d4:   ff c4                   inc    esp
 1d6:   a2 ef be ad de 00 00 00 00      movabs ds:secret[4], al
 1df:   8a 04 24                mov    al, BYTE PTR [rsp]
 1e2:   ff c4                   inc    esp
 1e4:   a2 ef be ad de 00 00 00 00      movabs ds:secret[10], al
 1ed:   8a 04 24                mov    al, BYTE PTR [rsp]
 1f0:   ff c4                   inc    esp
 1f2:   a2 ef be ad de 00 00 00 00      movabs ds:secret[8], al
 1fb:   8a 04 24                mov    al, BYTE PTR [rsp]
 1fe:   ff c4                   inc    esp
 200:   a2 ef be ad de 00 00 00 00      movabs ds:secret[2], al
 209:   8a 04 24                mov    al, BYTE PTR [rsp]
 20c:   ff c4                   inc    esp
 20e:   a2 ef be ad de 00 00 00 00      movabs ds:secret[22], al
 217:   8a 04 24                mov    al, BYTE PTR [rsp]
 21a:   ff c4                   inc    esp
 21c:   a2 ef be ad de 00 00 00 00      movabs ds:secret[6], al
 225:   8a 04 24                mov    al, BYTE PTR [rsp]
 228:   ff c4                   inc    esp
 22a:   a2 ef be ad de 00 00 00 00      movabs ds:secret[18], al
 233:   8a 04 24                mov    al, BYTE PTR [rsp]
 236:   ff c4                   inc    esp
 238:   a2 ef be ad de 00 00 00 00      movabs ds:secret[28], al
 241:   8a 04 24                mov    al, BYTE PTR [rsp]
 244:   ff c4                   inc    esp
 246:   a2 ef be ad de 00 00 00 00      movabs ds:secret[24], al
 24f:   8a 04 24                mov    al, BYTE PTR [rsp]
 252:   ff c4                   inc    esp
 254:   a2 ef be ad de 00 00 00 00      movabs ds:secret[26], al
 25d:   8a 04 24                mov    al, BYTE PTR [rsp]
 260:   ff c4                   inc    esp
 262:   a2 ef be ad de 00 00 00 00      movabs ds:secret[14], al
 26b:   8a 04 24                mov    al, BYTE PTR [rsp]
 26e:   ff c4                   inc    esp
 270:   a2 ef be ad de 00 00 00 00      movabs ds:secret[12], al
 279:   8a 04 24                mov    al, BYTE PTR [rsp]
 27c:   ff c4                   inc    esp
 27e:   a2 ef be ad de 00 00 00 00      movabs ds:secret[20], al
 287:   8a 04 24                mov    al, BYTE PTR [rsp]
 28a:   ff c4                   inc    esp
 28c:   a2 ef be ad de 00 00 00 00      movabs ds:secret[16], al
 295:   8a 04 24                mov    al, BYTE PTR [rsp]
 298:   ff c4                   inc    esp
 29a:   a2 ef be ad de 00 00 00 00      movabs ds:secret[30], al
 2a3:   a0 ef be ad de 00 00 00 00      movabs al, ds:secret[20]
 2ac:   48 ff cc                dec    rsp
 2af:   88 04 24                mov    BYTE PTR [rsp], al
 2b2:   66 5b                   pop    bx
 2b4:   b9 08 00 00 00          mov    ecx, 0x8
 2b9:   48 31 c0                xor    rax, rax
 2bc:   86 f8                   xchg   al, bh
 2be:   88 c2                   mov    dl, al
 2c0:   88 de                   mov    dh, bl
 2c2:   48 83 e0 01             and    rax, 0x1
 2c6:   48 83 e3 01             and    rbx, 0x1
 2ca:   40 8a bc 43 8f 1b 60 00         mov    dil, BYTE PTR [rbx+rax*2+0x601b8f]
 2d2:   40 88 fe                mov    sil, dil
 2d5:   40 d0 ee                shr    sil, 1
 2d8:   88 d0                   mov    al, dl
 2da:   24 fe                   and    al, 0xfe
 2dc:   40 08 f0                or     al, sil
 2df:   40 80 e7 01             and    dil, 0x1
 2e3:   88 f3                   mov    bl, dh
 2e5:   80 e3 fe                and    bl, 0xfe
 2e8:   40 08 fb                or     bl, dil
 2eb:   d0 c0                   rol    al, 1
 2ed:   d0 c3                   rol    bl, 1
 2ef:   e2 cd                   loop   0x2be
 2f1:   88 c7                   mov    bh, al
 2f3:   66 c1 c3 08             rol    bx, 0x8
 2f7:   66 53                   push   bx
 2f9:   8a 04 24                mov    al, BYTE PTR [rsp]
 2fc:   ff c4                   inc    esp
 2fe:   a2 ef be ad de 00 00 00 00      movabs ds:secret[20], al
 307:   8a 04 24                mov    al, BYTE PTR [rsp]
 30a:   ff c4                   inc    esp
 30c:   a2 ef be ad de 00 00 00 00      movabs ds:secret[21], al
 315:   a0 ef be ad de 00 00 00 00      movabs al, ds:secret[16]
 31e:   48 ff cc                dec    rsp
 321:   88 04 24                mov    BYTE PTR [rsp], al
 324:   66 5b                   pop    bx
 326:   b9 08 00 00 00          mov    ecx, 0x8
 32b:   48 31 c0                xor    rax, rax
 32e:   86 f8                   xchg   al, bh
 330:   88 c2                   mov    dl, al
 332:   88 de                   mov    dh, bl
 334:   48 83 e0 01             and    rax, 0x1
 338:   48 83 e3 01             and    rbx, 0x1
 33c:   40 8a bc 43 8f 1b 60 00         mov    dil, BYTE PTR [rbx+rax*2+0x601b8f]
 344:   40 88 fe                mov    sil, dil
 347:   40 d0 ee                shr    sil, 1
 34a:   88 d0                   mov    al, dl
 34c:   24 fe                   and    al, 0xfe
 34e:   40 08 f0                or     al, sil
 351:   40 80 e7 01             and    dil, 0x1
 355:   88 f3                   mov    bl, dh
 357:   80 e3 fe                and    bl, 0xfe
 35a:   40 08 fb                or     bl, dil
 35d:   d0 c0                   rol    al, 1
 35f:   d0 c3                   rol    bl, 1
 361:   e2 cd                   loop   0x330
 363:   88 c7                   mov    bh, al
 365:   66 c1 c3 08             rol    bx, 0x8
 369:   66 53                   push   bx
 36b:   8a 04 24                mov    al, BYTE PTR [rsp]
 36e:   ff c4                   inc    esp
 370:   a2 ef be ad de 00 00 00 00      movabs ds:secret[16], al
 379:   8a 04 24                mov    al, BYTE PTR [rsp]
 37c:   ff c4                   inc    esp
 37e:   a2 ef be ad de 00 00 00 00      movabs ds:secret[17], al
 387:   a0 ef be ad de 00 00 00 00      movabs al, ds:secret[18]
 390:   48 ff cc                dec    rsp
 393:   88 04 24                mov    BYTE PTR [rsp], al
 396:   66 5b                   pop    bx
 398:   b9 08 00 00 00          mov    ecx, 0x8
 39d:   48 31 c0                xor    rax, rax
 3a0:   86 f8                   xchg   al, bh
 3a2:   88 c2                   mov    dl, al
 3a4:   88 de                   mov    dh, bl
 3a6:   48 83 e0 01             and    rax, 0x1
 3aa:   48 83 e3 01             and    rbx, 0x1
 3ae:   40 8a bc 43 8f 1b 60 00         mov    dil, BYTE PTR [rbx+rax*2+0x601b8f]
 3b6:   40 88 fe                mov    sil, dil
 3b9:   40 d0 ee                shr    sil, 1
 3bc:   88 d0                   mov    al, dl
 3be:   24 fe                   and    al, 0xfe
 3c0:   40 08 f0                or     al, sil
 3c3:   40 80 e7 01             and    dil, 0x1
 3c7:   88 f3                   mov    bl, dh
 3c9:   80 e3 fe                and    bl, 0xfe
 3cc:   40 08 fb                or     bl, dil
 3cf:   d0 c0                   rol    al, 1
 3d1:   d0 c3                   rol    bl, 1
 3d3:   e2 cd                   loop   0x3a2
 3d5:   88 c7                   mov    bh, al
 3d7:   66 c1 c3 08             rol    bx, 0x8
 3db:   66 53                   push   bx
 3dd:   8a 04 24                mov    al, BYTE PTR [rsp]
 3e0:   ff c4                   inc    esp
 3e2:   a2 ef be ad de 00 00 00 00      movabs ds:secret[18], al
 3eb:   8a 04 24                mov    al, BYTE PTR [rsp]
 3ee:   ff c4                   inc    esp
 3f0:   a2 ef be ad de 00 00 00 00      movabs ds:secret[19], al
 3f9:   a0 ef be ad de 00 00 00 00      movabs al, ds:secret[22]
 402:   48 ff cc                dec    rsp
 405:   88 04 24                mov    BYTE PTR [rsp], al
 408:   66 5b                   pop    bx
 40a:   b9 08 00 00 00          mov    ecx, 0x8
 40f:   48 31 c0                xor    rax, rax
 412:   86 f8                   xchg   al, bh
 414:   88 c2                   mov    dl, al
 416:   88 de                   mov    dh, bl
 418:   48 83 e0 01             and    rax, 0x1
 41c:   48 83 e3 01             and    rbx, 0x1
 420:   40 8a bc 43 8f 1b 60 00         mov    dil, BYTE PTR [rbx+rax*2+0x601b8f]
 428:   40 88 fe                mov    sil, dil
 42b:   40 d0 ee                shr    sil, 1
 42e:   88 d0                   mov    al, dl
 430:   24 fe                   and    al, 0xfe
 432:   40 08 f0                or     al, sil
 435:   40 80 e7 01             and    dil, 0x1
 439:   88 f3                   mov    bl, dh
 43b:   80 e3 fe                and    bl, 0xfe
 43e:   40 08 fb                or     bl, dil
 441:   d0 c0                   rol    al, 1
 443:   d0 c3                   rol    bl, 1
 445:   e2 cd                   loop   0x414
 447:   88 c7                   mov    bh, al
 449:   66 c1 c3 08             rol    bx, 0x8
 44d:   66 53                   push   bx
 44f:   8a 04 24                mov    al, BYTE PTR [rsp]
 452:   ff c4                   inc    esp
 454:   a2 ef be ad de 00 00 00 00      movabs ds:secret[22], al
 45d:   8a 04 24                mov    al, BYTE PTR [rsp]
 460:   ff c4                   inc    esp
 462:   a2 ef be ad de 00 00 00 00      movabs ds:secret[23], al
 46b:   a0 ef be ad de 00 00 00 00      movabs al, ds:secret[30]
 474:   48 ff cc                dec    rsp
 477:   88 04 24                mov    BYTE PTR [rsp], al
 47a:   66 5b                   pop    bx
 47c:   b9 08 00 00 00          mov    ecx, 0x8
 481:   48 31 c0                xor    rax, rax
 484:   86 f8                   xchg   al, bh
 486:   88 c2                   mov    dl, al
 488:   88 de                   mov    dh, bl
 48a:   48 83 e0 01             and    rax, 0x1
 48e:   48 83 e3 01             and    rbx, 0x1
 492:   40 8a bc 43 8f 1b 60 00         mov    dil, BYTE PTR [rbx+rax*2+0x601b8f]
 49a:   40 88 fe                mov    sil, dil
 49d:   40 d0 ee                shr    sil, 1
 4a0:   88 d0                   mov    al, dl
 4a2:   24 fe                   and    al, 0xfe
 4a4:   40 08 f0                or     al, sil
 4a7:   40 80 e7 01             and    dil, 0x1
 4ab:   88 f3                   mov    bl, dh
 4ad:   80 e3 fe                and    bl, 0xfe
 4b0:   40 08 fb                or     bl, dil
 4b3:   d0 c0                   rol    al, 1
 4b5:   d0 c3                   rol    bl, 1
 4b7:   e2 cd                   loop   0x486
 4b9:   88 c7                   mov    bh, al
 4bb:   66 c1 c3 08             rol    bx, 0x8
 4bf:   66 53                   push   bx
 4c1:   8a 04 24                mov    al, BYTE PTR [rsp]
 4c4:   ff c4                   inc    esp
 4c6:   a2 ef be ad de 00 00 00 00      movabs ds:secret[30], al
 4cf:   8a 04 24                mov    al, BYTE PTR [rsp]
 4d2:   ff c4                   inc    esp
 4d4:   a2 ef be ad de 00 00 00 00      movabs ds:secret[31], al
 4dd:   a0 ef be ad de 00 00 00 00      movabs al, ds:secret[10]
 4e6:   48 ff cc                dec    rsp
 4e9:   88 04 24                mov    BYTE PTR [rsp], al
 4ec:   66 5b                   pop    bx
 4ee:   b9 08 00 00 00          mov    ecx, 0x8
 4f3:   48 31 c0                xor    rax, rax
 4f6:   86 f8                   xchg   al, bh
 4f8:   88 c2                   mov    dl, al
 4fa:   88 de                   mov    dh, bl
 4fc:   48 83 e0 01             and    rax, 0x1
 500:   48 83 e3 01             and    rbx, 0x1
 504:   40 8a bc 43 8f 1b 60 00         mov    dil, BYTE PTR [rbx+rax*2+0x601b8f]
 50c:   40 88 fe                mov    sil, dil
 50f:   40 d0 ee                shr    sil, 1
 512:   88 d0                   mov    al, dl
 514:   24 fe                   and    al, 0xfe
 516:   40 08 f0                or     al, sil
 519:   40 80 e7 01             and    dil, 0x1
 51d:   88 f3                   mov    bl, dh
 51f:   80 e3 fe                and    bl, 0xfe
 522:   40 08 fb                or     bl, dil
 525:   d0 c0                   rol    al, 1
 527:   d0 c3                   rol    bl, 1
 529:   e2 cd                   loop   0x4f8
 52b:   88 c7                   mov    bh, al
 52d:   66 c1 c3 08             rol    bx, 0x8
 531:   66 53                   push   bx
 533:   8a 04 24                mov    al, BYTE PTR [rsp]
 536:   ff c4                   inc    esp
 538:   a2 ef be ad de 00 00 00 00      movabs ds:secret[10], al
 541:   8a 04 24                mov    al, BYTE PTR [rsp]
 544:   ff c4                   inc    esp
 546:   a2 ef be ad de 00 00 00 00      movabs ds:secret[11], al
 54f:   a0 ef be ad de 00 00 00 00      movabs al, ds:secret[28]
 558:   48 ff cc                dec    rsp
 55b:   88 04 24                mov    BYTE PTR [rsp], al
 55e:   66 5b                   pop    bx
 560:   b9 08 00 00 00          mov    ecx, 0x8
 565:   48 31 c0                xor    rax, rax
 568:   86 f8                   xchg   al, bh
 56a:   88 c2                   mov    dl, al
 56c:   88 de                   mov    dh, bl
 56e:   48 83 e0 01             and    rax, 0x1
 572:   48 83 e3 01             and    rbx, 0x1
 576:   40 8a bc 43 8f 1b 60 00         mov    dil, BYTE PTR [rbx+rax*2+0x601b8f]
 57e:   40 88 fe                mov    sil, dil
 581:   40 d0 ee                shr    sil, 1
 584:   88 d0                   mov    al, dl
 586:   24 fe                   and    al, 0xfe
 588:   40 08 f0                or     al, sil
 58b:   40 80 e7 01             and    dil, 0x1
 58f:   88 f3                   mov    bl, dh
 591:   80 e3 fe                and    bl, 0xfe
 594:   40 08 fb                or     bl, dil
 597:   d0 c0                   rol    al, 1
 599:   d0 c3                   rol    bl, 1
 59b:   e2 cd                   loop   0x56a
 59d:   88 c7                   mov    bh, al
 59f:   66 c1 c3 08             rol    bx, 0x8
 5a3:   66 53                   push   bx
 5a5:   8a 04 24                mov    al, BYTE PTR [rsp]
 5a8:   ff c4                   inc    esp
 5aa:   a2 ef be ad de 00 00 00 00      movabs ds:secret[28], al
 5b3:   8a 04 24                mov    al, BYTE PTR [rsp]
 5b6:   ff c4                   inc    esp
 5b8:   a2 ef be ad de 00 00 00 00      movabs ds:secret[29], al
 5c1:   a0 ef be ad de 00 00 00 00      movabs al, ds:secret[12]
 5ca:   48 ff cc                dec    rsp
 5cd:   88 04 24                mov    BYTE PTR [rsp], al
 5d0:   66 5b                   pop    bx
 5d2:   b9 08 00 00 00          mov    ecx, 0x8
 5d7:   48 31 c0                xor    rax, rax
 5da:   86 f8                   xchg   al, bh
 5dc:   88 c2                   mov    dl, al
 5de:   88 de                   mov    dh, bl
 5e0:   48 83 e0 01             and    rax, 0x1
 5e4:   48 83 e3 01             and    rbx, 0x1
 5e8:   40 8a bc 43 8f 1b 60 00         mov    dil, BYTE PTR [rbx+rax*2+0x601b8f]
 5f0:   40 88 fe                mov    sil, dil
 5f3:   40 d0 ee                shr    sil, 1
 5f6:   88 d0                   mov    al, dl
 5f8:   24 fe                   and    al, 0xfe
 5fa:   40 08 f0                or     al, sil
 5fd:   40 80 e7 01             and    dil, 0x1
 601:   88 f3                   mov    bl, dh
 603:   80 e3 fe                and    bl, 0xfe
 606:   40 08 fb                or     bl, dil
 609:   d0 c0                   rol    al, 1
 60b:   d0 c3                   rol    bl, 1
 60d:   e2 cd                   loop   0x5dc
 60f:   88 c7                   mov    bh, al
 611:   66 c1 c3 08             rol    bx, 0x8
 615:   66 53                   push   bx
 617:   8a 04 24                mov    al, BYTE PTR [rsp]
 61a:   ff c4                   inc    esp
 61c:   a2 ef be ad de 00 00 00 00      movabs ds:secret[12], al
 625:   8a 04 24                mov    al, BYTE PTR [rsp]
 628:   ff c4                   inc    esp
 62a:   a2 ef be ad de 00 00 00 00      movabs ds:secret[13], al
 633:   a0 ef be ad de 00 00 00 00      movabs al, ds:secret[0]
 63c:   48 ff cc                dec    rsp
 63f:   88 04 24                mov    BYTE PTR [rsp], al
 642:   66 5b                   pop    bx
 644:   b9 08 00 00 00          mov    ecx, 0x8
 649:   48 31 c0                xor    rax, rax
 64c:   86 f8                   xchg   al, bh
 64e:   88 c2                   mov    dl, al
 650:   88 de                   mov    dh, bl
 652:   48 83 e0 01             and    rax, 0x1
 656:   48 83 e3 01             and    rbx, 0x1
 65a:   40 8a bc 43 8f 1b 60 00         mov    dil, BYTE PTR [rbx+rax*2+0x601b8f]
 662:   40 88 fe                mov    sil, dil
 665:   40 d0 ee                shr    sil, 1
 668:   88 d0                   mov    al, dl
 66a:   24 fe                   and    al, 0xfe
 66c:   40 08 f0                or     al, sil
 66f:   40 80 e7 01             and    dil, 0x1
 673:   88 f3                   mov    bl, dh
 675:   80 e3 fe                and    bl, 0xfe
 678:   40 08 fb                or     bl, dil
 67b:   d0 c0                   rol    al, 1
 67d:   d0 c3                   rol    bl, 1
 67f:   e2 cd                   loop   0x64e
 681:   88 c7                   mov    bh, al
 683:   66 c1 c3 08             rol    bx, 0x8
 687:   66 53                   push   bx
 689:   8a 04 24                mov    al, BYTE PTR [rsp]
 68c:   ff c4                   inc    esp
 68e:   a2 ef be ad de 00 00 00 00      movabs ds:secret[0], al
 697:   8a 04 24                mov    al, BYTE PTR [rsp]
 69a:   ff c4                   inc    esp
 69c:   a2 ef be ad de 00 00 00 00      movabs ds:secret[1], al
 6a5:   a0 ef be ad de 00 00 00 00      movabs al, ds:secret[14]
 6ae:   48 ff cc                dec    rsp
 6b1:   88 04 24                mov    BYTE PTR [rsp], al
 6b4:   66 5b                   pop    bx
 6b6:   b9 08 00 00 00          mov    ecx, 0x8
 6bb:   48 31 c0                xor    rax, rax
 6be:   86 f8                   xchg   al, bh
 6c0:   88 c2                   mov    dl, al
 6c2:   88 de                   mov    dh, bl
 6c4:   48 83 e0 01             and    rax, 0x1
 6c8:   48 83 e3 01             and    rbx, 0x1
 6cc:   40 8a bc 43 8f 1b 60 00         mov    dil, BYTE PTR [rbx+rax*2+0x601b8f]
 6d4:   40 88 fe                mov    sil, dil
 6d7:   40 d0 ee                shr    sil, 1
 6da:   88 d0                   mov    al, dl
 6dc:   24 fe                   and    al, 0xfe
 6de:   40 08 f0                or     al, sil
 6e1:   40 80 e7 01             and    dil, 0x1
 6e5:   88 f3                   mov    bl, dh
 6e7:   80 e3 fe                and    bl, 0xfe
 6ea:   40 08 fb                or     bl, dil
 6ed:   d0 c0                   rol    al, 1
 6ef:   d0 c3                   rol    bl, 1
 6f1:   e2 cd                   loop   0x6c0
 6f3:   88 c7                   mov    bh, al
 6f5:   66 c1 c3 08             rol    bx, 0x8
 6f9:   66 53                   push   bx
 6fb:   8a 04 24                mov    al, BYTE PTR [rsp]
 6fe:   ff c4                   inc    esp
 700:   a2 ef be ad de 00 00 00 00      movabs ds:secret[14], al
 709:   8a 04 24                mov    al, BYTE PTR [rsp]
 70c:   ff c4                   inc    esp
 70e:   a2 ef be ad de 00 00 00 00      movabs ds:secret[15], al
 717:   a0 ef be ad de 00 00 00 00      movabs al, ds:secret[6]
 720:   48 ff cc                dec    rsp
 723:   88 04 24                mov    BYTE PTR [rsp], al
 726:   66 5b                   pop    bx
 728:   b9 08 00 00 00          mov    ecx, 0x8
 72d:   48 31 c0                xor    rax, rax
 730:   86 f8                   xchg   al, bh
 732:   88 c2                   mov    dl, al
 734:   88 de                   mov    dh, bl
 736:   48 83 e0 01             and    rax, 0x1
 73a:   48 83 e3 01             and    rbx, 0x1
 73e:   40 8a bc 43 8f 1b 60 00         mov    dil, BYTE PTR [rbx+rax*2+0x601b8f]
 746:   40 88 fe                mov    sil, dil
 749:   40 d0 ee                shr    sil, 1
 74c:   88 d0                   mov    al, dl
 74e:   24 fe                   and    al, 0xfe
 750:   40 08 f0                or     al, sil
 753:   40 80 e7 01             and    dil, 0x1
 757:   88 f3                   mov    bl, dh
 759:   80 e3 fe                and    bl, 0xfe
 75c:   40 08 fb                or     bl, dil
 75f:   d0 c0                   rol    al, 1
 761:   d0 c3                   rol    bl, 1
 763:   e2 cd                   loop   0x732
 765:   88 c7                   mov    bh, al
 767:   66 c1 c3 08             rol    bx, 0x8
 76b:   66 53                   push   bx
 76d:   8a 04 24                mov    al, BYTE PTR [rsp]
 770:   ff c4                   inc    esp
 772:   a2 ef be ad de 00 00 00 00      movabs ds:secret[6], al
 77b:   8a 04 24                mov    al, BYTE PTR [rsp]
 77e:   ff c4                   inc    esp
 780:   a2 ef be ad de 00 00 00 00      movabs ds:secret[7], al
 789:   a0 ef be ad de 00 00 00 00      movabs al, ds:secret[2]
 792:   48 ff cc                dec    rsp
 795:   88 04 24                mov    BYTE PTR [rsp], al
 798:   66 5b                   pop    bx
 79a:   b9 08 00 00 00          mov    ecx, 0x8
 79f:   48 31 c0                xor    rax, rax
 7a2:   86 f8                   xchg   al, bh
 7a4:   88 c2                   mov    dl, al
 7a6:   88 de                   mov    dh, bl
 7a8:   48 83 e0 01             and    rax, 0x1
 7ac:   48 83 e3 01             and    rbx, 0x1
 7b0:   40 8a bc 43 8f 1b 60 00         mov    dil, BYTE PTR [rbx+rax*2+0x601b8f]
 7b8:   40 88 fe                mov    sil, dil
 7bb:   40 d0 ee                shr    sil, 1
 7be:   88 d0                   mov    al, dl
 7c0:   24 fe                   and    al, 0xfe
 7c2:   40 08 f0                or     al, sil
 7c5:   40 80 e7 01             and    dil, 0x1
 7c9:   88 f3                   mov    bl, dh
 7cb:   80 e3 fe                and    bl, 0xfe
 7ce:   40 08 fb                or     bl, dil
 7d1:   d0 c0                   rol    al, 1
 7d3:   d0 c3                   rol    bl, 1
 7d5:   e2 cd                   loop   0x7a4
 7d7:   88 c7                   mov    bh, al
 7d9:   66 c1 c3 08             rol    bx, 0x8
 7dd:   66 53                   push   bx
 7df:   8a 04 24                mov    al, BYTE PTR [rsp]
 7e2:   ff c4                   inc    esp
 7e4:   a2 ef be ad de 00 00 00 00      movabs ds:secret[2], al
 7ed:   8a 04 24                mov    al, BYTE PTR [rsp]
 7f0:   ff c4                   inc    esp
 7f2:   a2 ef be ad de 00 00 00 00      movabs ds:secret[3], al
 7fb:   a0 ef be ad de 00 00 00 00      movabs al, ds:secret[4]
 804:   48 ff cc                dec    rsp
 807:   88 04 24                mov    BYTE PTR [rsp], al
 80a:   66 5b                   pop    bx
 80c:   b9 08 00 00 00          mov    ecx, 0x8
 811:   48 31 c0                xor    rax, rax
 814:   86 f8                   xchg   al, bh
 816:   88 c2                   mov    dl, al
 818:   88 de                   mov    dh, bl
 81a:   48 83 e0 01             and    rax, 0x1
 81e:   48 83 e3 01             and    rbx, 0x1
 822:   40 8a bc 43 8f 1b 60 00         mov    dil, BYTE PTR [rbx+rax*2+0x601b8f]
 82a:   40 88 fe                mov    sil, dil
 82d:   40 d0 ee                shr    sil, 1
 830:   88 d0                   mov    al, dl
 832:   24 fe                   and    al, 0xfe
 834:   40 08 f0                or     al, sil
 837:   40 80 e7 01             and    dil, 0x1
 83b:   88 f3                   mov    bl, dh
 83d:   80 e3 fe                and    bl, 0xfe
 840:   40 08 fb                or     bl, dil
 843:   d0 c0                   rol    al, 1
 845:   d0 c3                   rol    bl, 1
 847:   e2 cd                   loop   0x816
 849:   88 c7                   mov    bh, al
 84b:   66 c1 c3 08             rol    bx, 0x8
 84f:   66 53                   push   bx
 851:   8a 04 24                mov    al, BYTE PTR [rsp]
 854:   ff c4                   inc    esp
 856:   a2 ef be ad de 00 00 00 00      movabs ds:secret[4], al
 85f:   8a 04 24                mov    al, BYTE PTR [rsp]
 862:   ff c4                   inc    esp
 864:   a2 ef be ad de 00 00 00 00      movabs ds:secret[5], al
 86d:   a0 ef be ad de 00 00 00 00      movabs al, ds:secret[8]
 876:   48 ff cc                dec    rsp
 879:   88 04 24                mov    BYTE PTR [rsp], al
 87c:   66 5b                   pop    bx
 87e:   b9 08 00 00 00          mov    ecx, 0x8
 883:   48 31 c0                xor    rax, rax
 886:   86 f8                   xchg   al, bh
 888:   88 c2                   mov    dl, al
 88a:   88 de                   mov    dh, bl
 88c:   48 83 e0 01             and    rax, 0x1
 890:   48 83 e3 01             and    rbx, 0x1
 894:   40 8a bc 43 8f 1b 60 00         mov    dil, BYTE PTR [rbx+rax*2+0x601b8f]
 89c:   40 88 fe                mov    sil, dil
 89f:   40 d0 ee                shr    sil, 1
 8a2:   88 d0                   mov    al, dl
 8a4:   24 fe                   and    al, 0xfe
 8a6:   40 08 f0                or     al, sil
 8a9:   40 80 e7 01             and    dil, 0x1
 8ad:   88 f3                   mov    bl, dh
 8af:   80 e3 fe                and    bl, 0xfe
 8b2:   40 08 fb                or     bl, dil
 8b5:   d0 c0                   rol    al, 1
 8b7:   d0 c3                   rol    bl, 1
 8b9:   e2 cd                   loop   0x888
 8bb:   88 c7                   mov    bh, al
 8bd:   66 c1 c3 08             rol    bx, 0x8
 8c1:   66 53                   push   bx
 8c3:   8a 04 24                mov    al, BYTE PTR [rsp]
 8c6:   ff c4                   inc    esp
 8c8:   a2 ef be ad de 00 00 00 00      movabs ds:secret[8], al
 8d1:   8a 04 24                mov    al, BYTE PTR [rsp]
 8d4:   ff c4                   inc    esp
 8d6:   a2 ef be ad de 00 00 00 00      movabs ds:secret[9], al
 8df:   a0 ef be ad de 00 00 00 00      movabs al, ds:secret[26]
 8e8:   48 ff cc                dec    rsp
 8eb:   88 04 24                mov    BYTE PTR [rsp], al
 8ee:   66 5b                   pop    bx
 8f0:   b9 08 00 00 00          mov    ecx, 0x8
 8f5:   48 31 c0                xor    rax, rax
 8f8:   86 f8                   xchg   al, bh
 8fa:   88 c2                   mov    dl, al
 8fc:   88 de                   mov    dh, bl
 8fe:   48 83 e0 01             and    rax, 0x1
 902:   48 83 e3 01             and    rbx, 0x1
 906:   40 8a bc 43 8f 1b 60 00         mov    dil, BYTE PTR [rbx+rax*2+0x601b8f]
 90e:   40 88 fe                mov    sil, dil
 911:   40 d0 ee                shr    sil, 1
 914:   88 d0                   mov    al, dl
 916:   24 fe                   and    al, 0xfe
 918:   40 08 f0                or     al, sil
 91b:   40 80 e7 01             and    dil, 0x1
 91f:   88 f3                   mov    bl, dh
 921:   80 e3 fe                and    bl, 0xfe
 924:   40 08 fb                or     bl, dil
 927:   d0 c0                   rol    al, 1
 929:   d0 c3                   rol    bl, 1
 92b:   e2 cd                   loop   0x8fa
 92d:   88 c7                   mov    bh, al
 92f:   66 c1 c3 08             rol    bx, 0x8
 933:   66 53                   push   bx
 935:   8a 04 24                mov    al, BYTE PTR [rsp]
 938:   ff c4                   inc    esp
 93a:   a2 ef be ad de 00 00 00 00      movabs ds:secret[26], al
 943:   8a 04 24                mov    al, BYTE PTR [rsp]
 946:   ff c4                   inc    esp
 948:   a2 ef be ad de 00 00 00 00      movabs ds:secret[27], al
 951:   a0 ef be ad de 00 00 00 00      movabs al, ds:secret[24]
 95a:   48 ff cc                dec    rsp
 95d:   88 04 24                mov    BYTE PTR [rsp], al
 960:   66 5b                   pop    bx
 962:   b9 08 00 00 00          mov    ecx, 0x8
 967:   48 31 c0                xor    rax, rax
 96a:   86 f8                   xchg   al, bh
 96c:   88 c2                   mov    dl, al
 96e:   88 de                   mov    dh, bl
 970:   48 83 e0 01             and    rax, 0x1
 974:   48 83 e3 01             and    rbx, 0x1
 978:   40 8a bc 43 8f 1b 60 00         mov    dil, BYTE PTR [rbx+rax*2+0x601b8f]
 980:   40 88 fe                mov    sil, dil
 983:   40 d0 ee                shr    sil, 1
 986:   88 d0                   mov    al, dl
 988:   24 fe                   and    al, 0xfe
 98a:   40 08 f0                or     al, sil
 98d:   40 80 e7 01             and    dil, 0x1
 991:   88 f3                   mov    bl, dh
 993:   80 e3 fe                and    bl, 0xfe
 996:   40 08 fb                or     bl, dil
 999:   d0 c0                   rol    al, 1
 99b:   d0 c3                   rol    bl, 1
 99d:   e2 cd                   loop   0x96c
 99f:   88 c7                   mov    bh, al
 9a1:   66 c1 c3 08             rol    bx, 0x8
 9a5:   66 53                   push   bx
 9a7:   8a 04 24                mov    al, BYTE PTR [rsp]
 9aa:   ff c4                   inc    esp
 9ac:   a2 ef be ad de 00 00 00 00      movabs ds:secret[24], al
 9b5:   8a 04 24                mov    al, BYTE PTR [rsp]
 9b8:   ff c4                   inc    esp
 9ba:   a2 ef be ad de 00 00 00 00      movabs ds:secret[25], al


[+] 8:5>;=91?072634<CEM@IBJKLAGNFDH-A-9-=-M-?-3-I-G-E-5-C-1-K-;-77&-7-6G&-G-FI&-I-HC&-C-BK&-K-JA&-A-@O&-O-N1&-1-0M&-M-L=&-=-<5&-5-49&-9-83&-3-2E&-E-D;&-;-:?&-?->!
   0:   a0 ef be ad de 00 00 00 00      movabs al, ds:secret[8]
   9:   48 ff cc                dec    rsp
   c:   88 04 24                mov    BYTE PTR [rsp], al
   f:   a0 ef be ad de 00 00 00 00      movabs al, ds:secret[10]
  18:   48 ff cc                dec    rsp
  1b:   88 04 24                mov    BYTE PTR [rsp], al
  1e:   a0 ef be ad de 00 00 00 00      movabs al, ds:secret[5]
  27:   48 ff cc                dec    rsp
  2a:   88 04 24                mov    BYTE PTR [rsp], al
  2d:   a0 ef be ad de 00 00 00 00      movabs al, ds:secret[14]
  36:   48 ff cc                dec    rsp
  39:   88 04 24                mov    BYTE PTR [rsp], al
  3c:   a0 ef be ad de 00 00 00 00      movabs al, ds:secret[11]
  45:   48 ff cc                dec    rsp
  48:   88 04 24                mov    BYTE PTR [rsp], al
  4b:   a0 ef be ad de 00 00 00 00      movabs al, ds:secret[13]
  54:   48 ff cc                dec    rsp
  57:   88 04 24                mov    BYTE PTR [rsp], al
  5a:   a0 ef be ad de 00 00 00 00      movabs al, ds:secret[9]
  63:   48 ff cc                dec    rsp
  66:   88 04 24                mov    BYTE PTR [rsp], al
  69:   a0 ef be ad de 00 00 00 00      movabs al, ds:secret[1]
  72:   48 ff cc                dec    rsp
  75:   88 04 24                mov    BYTE PTR [rsp], al
  78:   a0 ef be ad de 00 00 00 00      movabs al, ds:secret[15]
  81:   48 ff cc                dec    rsp
  84:   88 04 24                mov    BYTE PTR [rsp], al
  87:   a0 ef be ad de 00 00 00 00      movabs al, ds:secret[0]
  90:   48 ff cc                dec    rsp
  93:   88 04 24                mov    BYTE PTR [rsp], al
  96:   a0 ef be ad de 00 00 00 00      movabs al, ds:secret[7]
  9f:   48 ff cc                dec    rsp
  a2:   88 04 24                mov    BYTE PTR [rsp], al
  a5:   a0 ef be ad de 00 00 00 00      movabs al, ds:secret[2]
  ae:   48 ff cc                dec    rsp
  b1:   88 04 24                mov    BYTE PTR [rsp], al
  b4:   a0 ef be ad de 00 00 00 00      movabs al, ds:secret[6]
  bd:   48 ff cc                dec    rsp
  c0:   88 04 24                mov    BYTE PTR [rsp], al
  c3:   a0 ef be ad de 00 00 00 00      movabs al, ds:secret[3]
  cc:   48 ff cc                dec    rsp
  cf:   88 04 24                mov    BYTE PTR [rsp], al
  d2:   a0 ef be ad de 00 00 00 00      movabs al, ds:secret[4]
  db:   48 ff cc                dec    rsp
  de:   88 04 24                mov    BYTE PTR [rsp], al
  e1:   a0 ef be ad de 00 00 00 00      movabs al, ds:secret[12]
  ea:   48 ff cc                dec    rsp
  ed:   88 04 24                mov    BYTE PTR [rsp], al
  f0:   a0 ef be ad de 00 00 00 00      movabs al, ds:secret[19]
  f9:   48 ff cc                dec    rsp
  fc:   88 04 24                mov    BYTE PTR [rsp], al
  ff:   a0 ef be ad de 00 00 00 00      movabs al, ds:secret[21]
 108:   48 ff cc                dec    rsp
 10b:   88 04 24                mov    BYTE PTR [rsp], al
 10e:   a0 ef be ad de 00 00 00 00      movabs al, ds:secret[29]
 117:   48 ff cc                dec    rsp
 11a:   88 04 24                mov    BYTE PTR [rsp], al
 11d:   a0 ef be ad de 00 00 00 00      movabs al, ds:secret[16]
 126:   48 ff cc                dec    rsp
 129:   88 04 24                mov    BYTE PTR [rsp], al
 12c:   a0 ef be ad de 00 00 00 00      movabs al, ds:secret[25]
 135:   48 ff cc                dec    rsp
 138:   88 04 24                mov    BYTE PTR [rsp], al
 13b:   a0 ef be ad de 00 00 00 00      movabs al, ds:secret[18]
 144:   48 ff cc                dec    rsp
 147:   88 04 24                mov    BYTE PTR [rsp], al
 14a:   a0 ef be ad de 00 00 00 00      movabs al, ds:secret[26]
 153:   48 ff cc                dec    rsp
 156:   88 04 24                mov    BYTE PTR [rsp], al
 159:   a0 ef be ad de 00 00 00 00      movabs al, ds:secret[27]
 162:   48 ff cc                dec    rsp
 165:   88 04 24                mov    BYTE PTR [rsp], al
 168:   a0 ef be ad de 00 00 00 00      movabs al, ds:secret[28]
 171:   48 ff cc                dec    rsp
 174:   88 04 24                mov    BYTE PTR [rsp], al
 177:   a0 ef be ad de 00 00 00 00      movabs al, ds:secret[17]
 180:   48 ff cc                dec    rsp
 183:   88 04 24                mov    BYTE PTR [rsp], al
 186:   a0 ef be ad de 00 00 00 00      movabs al, ds:secret[23]
 18f:   48 ff cc                dec    rsp
 192:   88 04 24                mov    BYTE PTR [rsp], al
 195:   a0 ef be ad de 00 00 00 00      movabs al, ds:secret[30]
 19e:   48 ff cc                dec    rsp
 1a1:   88 04 24                mov    BYTE PTR [rsp], al
 1a4:   a0 ef be ad de 00 00 00 00      movabs al, ds:secret[22]
 1ad:   48 ff cc                dec    rsp
 1b0:   88 04 24                mov    BYTE PTR [rsp], al
 1b3:   a0 ef be ad de 00 00 00 00      movabs al, ds:secret[20]
 1bc:   48 ff cc                dec    rsp
 1bf:   88 04 24                mov    BYTE PTR [rsp], al
 1c2:   a0 ef be ad de 00 00 00 00      movabs al, ds:secret[24]
 1cb:   48 ff cc                dec    rsp
 1ce:   88 04 24                mov    BYTE PTR [rsp], al
 1d1:   8a 04 24                mov    al, BYTE PTR [rsp]
 1d4:   ff c4                   inc    esp
 1d6:   a2 ef be ad de 00 00 00 00      movabs ds:secret[17], al
 1df:   8a 04 24                mov    al, BYTE PTR [rsp]
 1e2:   ff c4                   inc    esp
 1e4:   a2 ef be ad de 00 00 00 00      movabs ds:secret[9], al
 1ed:   8a 04 24                mov    al, BYTE PTR [rsp]
 1f0:   ff c4                   inc    esp
 1f2:   a2 ef be ad de 00 00 00 00      movabs ds:secret[13], al
 1fb:   8a 04 24                mov    al, BYTE PTR [rsp]
 1fe:   ff c4                   inc    esp
 200:   a2 ef be ad de 00 00 00 00      movabs ds:secret[29], al
 209:   8a 04 24                mov    al, BYTE PTR [rsp]
 20c:   ff c4                   inc    esp
 20e:   a2 ef be ad de 00 00 00 00      movabs ds:secret[15], al
 217:   8a 04 24                mov    al, BYTE PTR [rsp]
 21a:   ff c4                   inc    esp
 21c:   a2 ef be ad de 00 00 00 00      movabs ds:secret[3], al
 225:   8a 04 24                mov    al, BYTE PTR [rsp]
 228:   ff c4                   inc    esp
 22a:   a2 ef be ad de 00 00 00 00      movabs ds:secret[25], al
 233:   8a 04 24                mov    al, BYTE PTR [rsp]
 236:   ff c4                   inc    esp
 238:   a2 ef be ad de 00 00 00 00      movabs ds:secret[23], al
 241:   8a 04 24                mov    al, BYTE PTR [rsp]
 244:   ff c4                   inc    esp
 246:   a2 ef be ad de 00 00 00 00      movabs ds:secret[21], al
 24f:   8a 04 24                mov    al, BYTE PTR [rsp]
 252:   ff c4                   inc    esp
 254:   a2 ef be ad de 00 00 00 00      movabs ds:secret[5], al
 25d:   8a 04 24                mov    al, BYTE PTR [rsp]
 260:   ff c4                   inc    esp
 262:   a2 ef be ad de 00 00 00 00      movabs ds:secret[19], al
 26b:   8a 04 24                mov    al, BYTE PTR [rsp]
 26e:   ff c4                   inc    esp
 270:   a2 ef be ad de 00 00 00 00      movabs ds:secret[1], al
 279:   8a 04 24                mov    al, BYTE PTR [rsp]
 27c:   ff c4                   inc    esp
 27e:   a2 ef be ad de 00 00 00 00      movabs ds:secret[27], al
 287:   8a 04 24                mov    al, BYTE PTR [rsp]
 28a:   ff c4                   inc    esp
 28c:   a2 ef be ad de 00 00 00 00      movabs ds:secret[11], al
 295:   8a 04 24                mov    al, BYTE PTR [rsp]
 298:   ff c4                   inc    esp
 29a:   a2 ef be ad de 00 00 00 00      movabs ds:secret[7], al
 2a3:   a0 ef be ad de 00 00 00 00      movabs al, ds:secret[7]
 2ac:   48 ff cc                dec    rsp
 2af:   88 04 24                mov    BYTE PTR [rsp], al
 2b2:   66 5b                   pop    bx
 2b4:   b9 08 00 00 00          mov    ecx, 0x8
 2b9:   48 31 c0                xor    rax, rax
 2bc:   86 f8                   xchg   al, bh
 2be:   88 c2                   mov    dl, al
 2c0:   88 de                   mov    dh, bl
 2c2:   48 83 e0 01             and    rax, 0x1
 2c6:   48 83 e3 01             and    rbx, 0x1
 2ca:   40 8a bc 43 8f 1b 60 00         mov    dil, BYTE PTR [rbx+rax*2+0x601b8f]
 2d2:   40 88 fe                mov    sil, dil
 2d5:   40 d0 ee                shr    sil, 1
 2d8:   88 d0                   mov    al, dl
 2da:   24 fe                   and    al, 0xfe
 2dc:   40 08 f0                or     al, sil
 2df:   40 80 e7 01             and    dil, 0x1
 2e3:   88 f3                   mov    bl, dh
 2e5:   80 e3 fe                and    bl, 0xfe
 2e8:   40 08 fb                or     bl, dil
 2eb:   d0 c0                   rol    al, 1
 2ed:   d0 c3                   rol    bl, 1
 2ef:   e2 cd                   loop   0x2be
 2f1:   88 c7                   mov    bh, al
 2f3:   66 c1 c3 08             rol    bx, 0x8
 2f7:   66 53                   push   bx
 2f9:   8a 04 24                mov    al, BYTE PTR [rsp]
 2fc:   ff c4                   inc    esp
 2fe:   a2 ef be ad de 00 00 00 00      movabs ds:secret[7], al
 307:   8a 04 24                mov    al, BYTE PTR [rsp]
 30a:   ff c4                   inc    esp
 30c:   a2 ef be ad de 00 00 00 00      movabs ds:secret[6], al
 315:   a0 ef be ad de 00 00 00 00      movabs al, ds:secret[23]
 31e:   48 ff cc                dec    rsp
 321:   88 04 24                mov    BYTE PTR [rsp], al
 324:   66 5b                   pop    bx
 326:   b9 08 00 00 00          mov    ecx, 0x8
 32b:   48 31 c0                xor    rax, rax
 32e:   86 f8                   xchg   al, bh
 330:   88 c2                   mov    dl, al
 332:   88 de                   mov    dh, bl
 334:   48 83 e0 01             and    rax, 0x1
 338:   48 83 e3 01             and    rbx, 0x1
 33c:   40 8a bc 43 8f 1b 60 00         mov    dil, BYTE PTR [rbx+rax*2+0x601b8f]
 344:   40 88 fe                mov    sil, dil
 347:   40 d0 ee                shr    sil, 1
 34a:   88 d0                   mov    al, dl
 34c:   24 fe                   and    al, 0xfe
 34e:   40 08 f0                or     al, sil
 351:   40 80 e7 01             and    dil, 0x1
 355:   88 f3                   mov    bl, dh
 357:   80 e3 fe                and    bl, 0xfe
 35a:   40 08 fb                or     bl, dil
 35d:   d0 c0                   rol    al, 1
 35f:   d0 c3                   rol    bl, 1
 361:   e2 cd                   loop   0x330
 363:   88 c7                   mov    bh, al
 365:   66 c1 c3 08             rol    bx, 0x8
 369:   66 53                   push   bx
 36b:   8a 04 24                mov    al, BYTE PTR [rsp]
 36e:   ff c4                   inc    esp
 370:   a2 ef be ad de 00 00 00 00      movabs ds:secret[23], al
 379:   8a 04 24                mov    al, BYTE PTR [rsp]
 37c:   ff c4                   inc    esp
 37e:   a2 ef be ad de 00 00 00 00      movabs ds:secret[22], al
 387:   a0 ef be ad de 00 00 00 00      movabs al, ds:secret[25]
 390:   48 ff cc                dec    rsp
 393:   88 04 24                mov    BYTE PTR [rsp], al
 396:   66 5b                   pop    bx
 398:   b9 08 00 00 00          mov    ecx, 0x8
 39d:   48 31 c0                xor    rax, rax
 3a0:   86 f8                   xchg   al, bh
 3a2:   88 c2                   mov    dl, al
 3a4:   88 de                   mov    dh, bl
 3a6:   48 83 e0 01             and    rax, 0x1
 3aa:   48 83 e3 01             and    rbx, 0x1
 3ae:   40 8a bc 43 8f 1b 60 00         mov    dil, BYTE PTR [rbx+rax*2+0x601b8f]
 3b6:   40 88 fe                mov    sil, dil
 3b9:   40 d0 ee                shr    sil, 1
 3bc:   88 d0                   mov    al, dl
 3be:   24 fe                   and    al, 0xfe
 3c0:   40 08 f0                or     al, sil
 3c3:   40 80 e7 01             and    dil, 0x1
 3c7:   88 f3                   mov    bl, dh
 3c9:   80 e3 fe                and    bl, 0xfe
 3cc:   40 08 fb                or     bl, dil
 3cf:   d0 c0                   rol    al, 1
 3d1:   d0 c3                   rol    bl, 1
 3d3:   e2 cd                   loop   0x3a2
 3d5:   88 c7                   mov    bh, al
 3d7:   66 c1 c3 08             rol    bx, 0x8
 3db:   66 53                   push   bx
 3dd:   8a 04 24                mov    al, BYTE PTR [rsp]
 3e0:   ff c4                   inc    esp
 3e2:   a2 ef be ad de 00 00 00 00      movabs ds:secret[25], al
 3eb:   8a 04 24                mov    al, BYTE PTR [rsp]
 3ee:   ff c4                   inc    esp
 3f0:   a2 ef be ad de 00 00 00 00      movabs ds:secret[24], al
 3f9:   a0 ef be ad de 00 00 00 00      movabs al, ds:secret[19]
 402:   48 ff cc                dec    rsp
 405:   88 04 24                mov    BYTE PTR [rsp], al
 408:   66 5b                   pop    bx
 40a:   b9 08 00 00 00          mov    ecx, 0x8
 40f:   48 31 c0                xor    rax, rax
 412:   86 f8                   xchg   al, bh
 414:   88 c2                   mov    dl, al
 416:   88 de                   mov    dh, bl
 418:   48 83 e0 01             and    rax, 0x1
 41c:   48 83 e3 01             and    rbx, 0x1
 420:   40 8a bc 43 8f 1b 60 00         mov    dil, BYTE PTR [rbx+rax*2+0x601b8f]
 428:   40 88 fe                mov    sil, dil
 42b:   40 d0 ee                shr    sil, 1
 42e:   88 d0                   mov    al, dl
 430:   24 fe                   and    al, 0xfe
 432:   40 08 f0                or     al, sil
 435:   40 80 e7 01             and    dil, 0x1
 439:   88 f3                   mov    bl, dh
 43b:   80 e3 fe                and    bl, 0xfe
 43e:   40 08 fb                or     bl, dil
 441:   d0 c0                   rol    al, 1
 443:   d0 c3                   rol    bl, 1
 445:   e2 cd                   loop   0x414
 447:   88 c7                   mov    bh, al
 449:   66 c1 c3 08             rol    bx, 0x8
 44d:   66 53                   push   bx
 44f:   8a 04 24                mov    al, BYTE PTR [rsp]
 452:   ff c4                   inc    esp
 454:   a2 ef be ad de 00 00 00 00      movabs ds:secret[19], al
 45d:   8a 04 24                mov    al, BYTE PTR [rsp]
 460:   ff c4                   inc    esp
 462:   a2 ef be ad de 00 00 00 00      movabs ds:secret[18], al
 46b:   a0 ef be ad de 00 00 00 00      movabs al, ds:secret[27]
 474:   48 ff cc                dec    rsp
 477:   88 04 24                mov    BYTE PTR [rsp], al
 47a:   66 5b                   pop    bx
 47c:   b9 08 00 00 00          mov    ecx, 0x8
 481:   48 31 c0                xor    rax, rax
 484:   86 f8                   xchg   al, bh
 486:   88 c2                   mov    dl, al
 488:   88 de                   mov    dh, bl
 48a:   48 83 e0 01             and    rax, 0x1
 48e:   48 83 e3 01             and    rbx, 0x1
 492:   40 8a bc 43 8f 1b 60 00         mov    dil, BYTE PTR [rbx+rax*2+0x601b8f]
 49a:   40 88 fe                mov    sil, dil
 49d:   40 d0 ee                shr    sil, 1
 4a0:   88 d0                   mov    al, dl
 4a2:   24 fe                   and    al, 0xfe
 4a4:   40 08 f0                or     al, sil
 4a7:   40 80 e7 01             and    dil, 0x1
 4ab:   88 f3                   mov    bl, dh
 4ad:   80 e3 fe                and    bl, 0xfe
 4b0:   40 08 fb                or     bl, dil
 4b3:   d0 c0                   rol    al, 1
 4b5:   d0 c3                   rol    bl, 1
 4b7:   e2 cd                   loop   0x486
 4b9:   88 c7                   mov    bh, al
 4bb:   66 c1 c3 08             rol    bx, 0x8
 4bf:   66 53                   push   bx
 4c1:   8a 04 24                mov    al, BYTE PTR [rsp]
 4c4:   ff c4                   inc    esp
 4c6:   a2 ef be ad de 00 00 00 00      movabs ds:secret[27], al
 4cf:   8a 04 24                mov    al, BYTE PTR [rsp]
 4d2:   ff c4                   inc    esp
 4d4:   a2 ef be ad de 00 00 00 00      movabs ds:secret[26], al
 4dd:   a0 ef be ad de 00 00 00 00      movabs al, ds:secret[17]
 4e6:   48 ff cc                dec    rsp
 4e9:   88 04 24                mov    BYTE PTR [rsp], al
 4ec:   66 5b                   pop    bx
 4ee:   b9 08 00 00 00          mov    ecx, 0x8
 4f3:   48 31 c0                xor    rax, rax
 4f6:   86 f8                   xchg   al, bh
 4f8:   88 c2                   mov    dl, al
 4fa:   88 de                   mov    dh, bl
 4fc:   48 83 e0 01             and    rax, 0x1
 500:   48 83 e3 01             and    rbx, 0x1
 504:   40 8a bc 43 8f 1b 60 00         mov    dil, BYTE PTR [rbx+rax*2+0x601b8f]
 50c:   40 88 fe                mov    sil, dil
 50f:   40 d0 ee                shr    sil, 1
 512:   88 d0                   mov    al, dl
 514:   24 fe                   and    al, 0xfe
 516:   40 08 f0                or     al, sil
 519:   40 80 e7 01             and    dil, 0x1
 51d:   88 f3                   mov    bl, dh
 51f:   80 e3 fe                and    bl, 0xfe
 522:   40 08 fb                or     bl, dil
 525:   d0 c0                   rol    al, 1
 527:   d0 c3                   rol    bl, 1
 529:   e2 cd                   loop   0x4f8
 52b:   88 c7                   mov    bh, al
 52d:   66 c1 c3 08             rol    bx, 0x8
 531:   66 53                   push   bx
 533:   8a 04 24                mov    al, BYTE PTR [rsp]
 536:   ff c4                   inc    esp
 538:   a2 ef be ad de 00 00 00 00      movabs ds:secret[17], al
 541:   8a 04 24                mov    al, BYTE PTR [rsp]
 544:   ff c4                   inc    esp
 546:   a2 ef be ad de 00 00 00 00      movabs ds:secret[16], al
 54f:   a0 ef be ad de 00 00 00 00      movabs al, ds:secret[31]
 558:   48 ff cc                dec    rsp
 55b:   88 04 24                mov    BYTE PTR [rsp], al
 55e:   66 5b                   pop    bx
 560:   b9 08 00 00 00          mov    ecx, 0x8
 565:   48 31 c0                xor    rax, rax
 568:   86 f8                   xchg   al, bh
 56a:   88 c2                   mov    dl, al
 56c:   88 de                   mov    dh, bl
 56e:   48 83 e0 01             and    rax, 0x1
 572:   48 83 e3 01             and    rbx, 0x1
 576:   40 8a bc 43 8f 1b 60 00         mov    dil, BYTE PTR [rbx+rax*2+0x601b8f]
 57e:   40 88 fe                mov    sil, dil
 581:   40 d0 ee                shr    sil, 1
 584:   88 d0                   mov    al, dl
 586:   24 fe                   and    al, 0xfe
 588:   40 08 f0                or     al, sil
 58b:   40 80 e7 01             and    dil, 0x1
 58f:   88 f3                   mov    bl, dh
 591:   80 e3 fe                and    bl, 0xfe
 594:   40 08 fb                or     bl, dil
 597:   d0 c0                   rol    al, 1
 599:   d0 c3                   rol    bl, 1
 59b:   e2 cd                   loop   0x56a
 59d:   88 c7                   mov    bh, al
 59f:   66 c1 c3 08             rol    bx, 0x8
 5a3:   66 53                   push   bx
 5a5:   8a 04 24                mov    al, BYTE PTR [rsp]
 5a8:   ff c4                   inc    esp
 5aa:   a2 ef be ad de 00 00 00 00      movabs ds:secret[31], al
 5b3:   8a 04 24                mov    al, BYTE PTR [rsp]
 5b6:   ff c4                   inc    esp
 5b8:   a2 ef be ad de 00 00 00 00      movabs ds:secret[30], al
 5c1:   a0 ef be ad de 00 00 00 00      movabs al, ds:secret[1]
 5ca:   48 ff cc                dec    rsp
 5cd:   88 04 24                mov    BYTE PTR [rsp], al
 5d0:   66 5b                   pop    bx
 5d2:   b9 08 00 00 00          mov    ecx, 0x8
 5d7:   48 31 c0                xor    rax, rax
 5da:   86 f8                   xchg   al, bh
 5dc:   88 c2                   mov    dl, al
 5de:   88 de                   mov    dh, bl
 5e0:   48 83 e0 01             and    rax, 0x1
 5e4:   48 83 e3 01             and    rbx, 0x1
 5e8:   40 8a bc 43 8f 1b 60 00         mov    dil, BYTE PTR [rbx+rax*2+0x601b8f]
 5f0:   40 88 fe                mov    sil, dil
 5f3:   40 d0 ee                shr    sil, 1
 5f6:   88 d0                   mov    al, dl
 5f8:   24 fe                   and    al, 0xfe
 5fa:   40 08 f0                or     al, sil
 5fd:   40 80 e7 01             and    dil, 0x1
 601:   88 f3                   mov    bl, dh
 603:   80 e3 fe                and    bl, 0xfe
 606:   40 08 fb                or     bl, dil
 609:   d0 c0                   rol    al, 1
 60b:   d0 c3                   rol    bl, 1
 60d:   e2 cd                   loop   0x5dc
 60f:   88 c7                   mov    bh, al
 611:   66 c1 c3 08             rol    bx, 0x8
 615:   66 53                   push   bx
 617:   8a 04 24                mov    al, BYTE PTR [rsp]
 61a:   ff c4                   inc    esp
 61c:   a2 ef be ad de 00 00 00 00      movabs ds:secret[1], al
 625:   8a 04 24                mov    al, BYTE PTR [rsp]
 628:   ff c4                   inc    esp
 62a:   a2 ef be ad de 00 00 00 00      movabs ds:secret[0], al
 633:   a0 ef be ad de 00 00 00 00      movabs al, ds:secret[29]
 63c:   48 ff cc                dec    rsp
 63f:   88 04 24                mov    BYTE PTR [rsp], al
 642:   66 5b                   pop    bx
 644:   b9 08 00 00 00          mov    ecx, 0x8
 649:   48 31 c0                xor    rax, rax
 64c:   86 f8                   xchg   al, bh
 64e:   88 c2                   mov    dl, al
 650:   88 de                   mov    dh, bl
 652:   48 83 e0 01             and    rax, 0x1
 656:   48 83 e3 01             and    rbx, 0x1
 65a:   40 8a bc 43 8f 1b 60 00         mov    dil, BYTE PTR [rbx+rax*2+0x601b8f]
 662:   40 88 fe                mov    sil, dil
 665:   40 d0 ee                shr    sil, 1
 668:   88 d0                   mov    al, dl
 66a:   24 fe                   and    al, 0xfe
 66c:   40 08 f0                or     al, sil
 66f:   40 80 e7 01             and    dil, 0x1
 673:   88 f3                   mov    bl, dh
 675:   80 e3 fe                and    bl, 0xfe
 678:   40 08 fb                or     bl, dil
 67b:   d0 c0                   rol    al, 1
 67d:   d0 c3                   rol    bl, 1
 67f:   e2 cd                   loop   0x64e
 681:   88 c7                   mov    bh, al
 683:   66 c1 c3 08             rol    bx, 0x8
 687:   66 53                   push   bx
 689:   8a 04 24                mov    al, BYTE PTR [rsp]
 68c:   ff c4                   inc    esp
 68e:   a2 ef be ad de 00 00 00 00      movabs ds:secret[29], al
 697:   8a 04 24                mov    al, BYTE PTR [rsp]
 69a:   ff c4                   inc    esp
 69c:   a2 ef be ad de 00 00 00 00      movabs ds:secret[28], al
 6a5:   a0 ef be ad de 00 00 00 00      movabs al, ds:secret[13]
 6ae:   48 ff cc                dec    rsp
 6b1:   88 04 24                mov    BYTE PTR [rsp], al
 6b4:   66 5b                   pop    bx
 6b6:   b9 08 00 00 00          mov    ecx, 0x8
 6bb:   48 31 c0                xor    rax, rax
 6be:   86 f8                   xchg   al, bh
 6c0:   88 c2                   mov    dl, al
 6c2:   88 de                   mov    dh, bl
 6c4:   48 83 e0 01             and    rax, 0x1
 6c8:   48 83 e3 01             and    rbx, 0x1
 6cc:   40 8a bc 43 8f 1b 60 00         mov    dil, BYTE PTR [rbx+rax*2+0x601b8f]
 6d4:   40 88 fe                mov    sil, dil
 6d7:   40 d0 ee                shr    sil, 1
 6da:   88 d0                   mov    al, dl
 6dc:   24 fe                   and    al, 0xfe
 6de:   40 08 f0                or     al, sil
 6e1:   40 80 e7 01             and    dil, 0x1
 6e5:   88 f3                   mov    bl, dh
 6e7:   80 e3 fe                and    bl, 0xfe
 6ea:   40 08 fb                or     bl, dil
 6ed:   d0 c0                   rol    al, 1
 6ef:   d0 c3                   rol    bl, 1
 6f1:   e2 cd                   loop   0x6c0
 6f3:   88 c7                   mov    bh, al
 6f5:   66 c1 c3 08             rol    bx, 0x8
 6f9:   66 53                   push   bx
 6fb:   8a 04 24                mov    al, BYTE PTR [rsp]
 6fe:   ff c4                   inc    esp
 700:   a2 ef be ad de 00 00 00 00      movabs ds:secret[13], al
 709:   8a 04 24                mov    al, BYTE PTR [rsp]
 70c:   ff c4                   inc    esp
 70e:   a2 ef be ad de 00 00 00 00      movabs ds:secret[12], al
 717:   a0 ef be ad de 00 00 00 00      movabs al, ds:secret[5]
 720:   48 ff cc                dec    rsp
 723:   88 04 24                mov    BYTE PTR [rsp], al
 726:   66 5b                   pop    bx
 728:   b9 08 00 00 00          mov    ecx, 0x8
 72d:   48 31 c0                xor    rax, rax
 730:   86 f8                   xchg   al, bh
 732:   88 c2                   mov    dl, al
 734:   88 de                   mov    dh, bl
 736:   48 83 e0 01             and    rax, 0x1
 73a:   48 83 e3 01             and    rbx, 0x1
 73e:   40 8a bc 43 8f 1b 60 00         mov    dil, BYTE PTR [rbx+rax*2+0x601b8f]
 746:   40 88 fe                mov    sil, dil
 749:   40 d0 ee                shr    sil, 1
 74c:   88 d0                   mov    al, dl
 74e:   24 fe                   and    al, 0xfe
 750:   40 08 f0                or     al, sil
 753:   40 80 e7 01             and    dil, 0x1
 757:   88 f3                   mov    bl, dh
 759:   80 e3 fe                and    bl, 0xfe
 75c:   40 08 fb                or     bl, dil
 75f:   d0 c0                   rol    al, 1
 761:   d0 c3                   rol    bl, 1
 763:   e2 cd                   loop   0x732
 765:   88 c7                   mov    bh, al
 767:   66 c1 c3 08             rol    bx, 0x8
 76b:   66 53                   push   bx
 76d:   8a 04 24                mov    al, BYTE PTR [rsp]
 770:   ff c4                   inc    esp
 772:   a2 ef be ad de 00 00 00 00      movabs ds:secret[5], al
 77b:   8a 04 24                mov    al, BYTE PTR [rsp]
 77e:   ff c4                   inc    esp
 780:   a2 ef be ad de 00 00 00 00      movabs ds:secret[4], al
 789:   a0 ef be ad de 00 00 00 00      movabs al, ds:secret[9]
 792:   48 ff cc                dec    rsp
 795:   88 04 24                mov    BYTE PTR [rsp], al
 798:   66 5b                   pop    bx
 79a:   b9 08 00 00 00          mov    ecx, 0x8
 79f:   48 31 c0                xor    rax, rax
 7a2:   86 f8                   xchg   al, bh
 7a4:   88 c2                   mov    dl, al
 7a6:   88 de                   mov    dh, bl
 7a8:   48 83 e0 01             and    rax, 0x1
 7ac:   48 83 e3 01             and    rbx, 0x1
 7b0:   40 8a bc 43 8f 1b 60 00         mov    dil, BYTE PTR [rbx+rax*2+0x601b8f]
 7b8:   40 88 fe                mov    sil, dil
 7bb:   40 d0 ee                shr    sil, 1
 7be:   88 d0                   mov    al, dl
 7c0:   24 fe                   and    al, 0xfe
 7c2:   40 08 f0                or     al, sil
 7c5:   40 80 e7 01             and    dil, 0x1
 7c9:   88 f3                   mov    bl, dh
 7cb:   80 e3 fe                and    bl, 0xfe
 7ce:   40 08 fb                or     bl, dil
 7d1:   d0 c0                   rol    al, 1
 7d3:   d0 c3                   rol    bl, 1
 7d5:   e2 cd                   loop   0x7a4
 7d7:   88 c7                   mov    bh, al
 7d9:   66 c1 c3 08             rol    bx, 0x8
 7dd:   66 53                   push   bx
 7df:   8a 04 24                mov    al, BYTE PTR [rsp]
 7e2:   ff c4                   inc    esp
 7e4:   a2 ef be ad de 00 00 00 00      movabs ds:secret[9], al
 7ed:   8a 04 24                mov    al, BYTE PTR [rsp]
 7f0:   ff c4                   inc    esp
 7f2:   a2 ef be ad de 00 00 00 00      movabs ds:secret[8], al
 7fb:   a0 ef be ad de 00 00 00 00      movabs al, ds:secret[3]
 804:   48 ff cc                dec    rsp
 807:   88 04 24                mov    BYTE PTR [rsp], al
 80a:   66 5b                   pop    bx
 80c:   b9 08 00 00 00          mov    ecx, 0x8
 811:   48 31 c0                xor    rax, rax
 814:   86 f8                   xchg   al, bh
 816:   88 c2                   mov    dl, al
 818:   88 de                   mov    dh, bl
 81a:   48 83 e0 01             and    rax, 0x1
 81e:   48 83 e3 01             and    rbx, 0x1
 822:   40 8a bc 43 8f 1b 60 00         mov    dil, BYTE PTR [rbx+rax*2+0x601b8f]
 82a:   40 88 fe                mov    sil, dil
 82d:   40 d0 ee                shr    sil, 1
 830:   88 d0                   mov    al, dl
 832:   24 fe                   and    al, 0xfe
 834:   40 08 f0                or     al, sil
 837:   40 80 e7 01             and    dil, 0x1
 83b:   88 f3                   mov    bl, dh
 83d:   80 e3 fe                and    bl, 0xfe
 840:   40 08 fb                or     bl, dil
 843:   d0 c0                   rol    al, 1
 845:   d0 c3                   rol    bl, 1
 847:   e2 cd                   loop   0x816
 849:   88 c7                   mov    bh, al
 84b:   66 c1 c3 08             rol    bx, 0x8
 84f:   66 53                   push   bx
 851:   8a 04 24                mov    al, BYTE PTR [rsp]
 854:   ff c4                   inc    esp
 856:   a2 ef be ad de 00 00 00 00      movabs ds:secret[3], al
 85f:   8a 04 24                mov    al, BYTE PTR [rsp]
 862:   ff c4                   inc    esp
 864:   a2 ef be ad de 00 00 00 00      movabs ds:secret[2], al
 86d:   a0 ef be ad de 00 00 00 00      movabs al, ds:secret[21]
 876:   48 ff cc                dec    rsp
 879:   88 04 24                mov    BYTE PTR [rsp], al
 87c:   66 5b                   pop    bx
 87e:   b9 08 00 00 00          mov    ecx, 0x8
 883:   48 31 c0                xor    rax, rax
 886:   86 f8                   xchg   al, bh
 888:   88 c2                   mov    dl, al
 88a:   88 de                   mov    dh, bl
 88c:   48 83 e0 01             and    rax, 0x1
 890:   48 83 e3 01             and    rbx, 0x1
 894:   40 8a bc 43 8f 1b 60 00         mov    dil, BYTE PTR [rbx+rax*2+0x601b8f]
 89c:   40 88 fe                mov    sil, dil
 89f:   40 d0 ee                shr    sil, 1
 8a2:   88 d0                   mov    al, dl
 8a4:   24 fe                   and    al, 0xfe
 8a6:   40 08 f0                or     al, sil
 8a9:   40 80 e7 01             and    dil, 0x1
 8ad:   88 f3                   mov    bl, dh
 8af:   80 e3 fe                and    bl, 0xfe
 8b2:   40 08 fb                or     bl, dil
 8b5:   d0 c0                   rol    al, 1
 8b7:   d0 c3                   rol    bl, 1
 8b9:   e2 cd                   loop   0x888
 8bb:   88 c7                   mov    bh, al
 8bd:   66 c1 c3 08             rol    bx, 0x8
 8c1:   66 53                   push   bx
 8c3:   8a 04 24                mov    al, BYTE PTR [rsp]
 8c6:   ff c4                   inc    esp
 8c8:   a2 ef be ad de 00 00 00 00      movabs ds:secret[21], al
 8d1:   8a 04 24                mov    al, BYTE PTR [rsp]
 8d4:   ff c4                   inc    esp
 8d6:   a2 ef be ad de 00 00 00 00      movabs ds:secret[20], al
 8df:   a0 ef be ad de 00 00 00 00      movabs al, ds:secret[11]
 8e8:   48 ff cc                dec    rsp
 8eb:   88 04 24                mov    BYTE PTR [rsp], al
 8ee:   66 5b                   pop    bx
 8f0:   b9 08 00 00 00          mov    ecx, 0x8
 8f5:   48 31 c0                xor    rax, rax
 8f8:   86 f8                   xchg   al, bh
 8fa:   88 c2                   mov    dl, al
 8fc:   88 de                   mov    dh, bl
 8fe:   48 83 e0 01             and    rax, 0x1
 902:   48 83 e3 01             and    rbx, 0x1
 906:   40 8a bc 43 8f 1b 60 00         mov    dil, BYTE PTR [rbx+rax*2+0x601b8f]
 90e:   40 88 fe                mov    sil, dil
 911:   40 d0 ee                shr    sil, 1
 914:   88 d0                   mov    al, dl
 916:   24 fe                   and    al, 0xfe
 918:   40 08 f0                or     al, sil
 91b:   40 80 e7 01             and    dil, 0x1
 91f:   88 f3                   mov    bl, dh
 921:   80 e3 fe                and    bl, 0xfe
 924:   40 08 fb                or     bl, dil
 927:   d0 c0                   rol    al, 1
 929:   d0 c3                   rol    bl, 1
 92b:   e2 cd                   loop   0x8fa
 92d:   88 c7                   mov    bh, al
 92f:   66 c1 c3 08             rol    bx, 0x8
 933:   66 53                   push   bx
 935:   8a 04 24                mov    al, BYTE PTR [rsp]
 938:   ff c4                   inc    esp
 93a:   a2 ef be ad de 00 00 00 00      movabs ds:secret[11], al
 943:   8a 04 24                mov    al, BYTE PTR [rsp]
 946:   ff c4                   inc    esp
 948:   a2 ef be ad de 00 00 00 00      movabs ds:secret[10], al
 951:   a0 ef be ad de 00 00 00 00      movabs al, ds:secret[15]
 95a:   48 ff cc                dec    rsp
 95d:   88 04 24                mov    BYTE PTR [rsp], al
 960:   66 5b                   pop    bx
 962:   b9 08 00 00 00          mov    ecx, 0x8
 967:   48 31 c0                xor    rax, rax
 96a:   86 f8                   xchg   al, bh
 96c:   88 c2                   mov    dl, al
 96e:   88 de                   mov    dh, bl
 970:   48 83 e0 01             and    rax, 0x1
 974:   48 83 e3 01             and    rbx, 0x1
 978:   40 8a bc 43 8f 1b 60 00         mov    dil, BYTE PTR [rbx+rax*2+0x601b8f]
 980:   40 88 fe                mov    sil, dil
 983:   40 d0 ee                shr    sil, 1
 986:   88 d0                   mov    al, dl
 988:   24 fe                   and    al, 0xfe
 98a:   40 08 f0                or     al, sil
 98d:   40 80 e7 01             and    dil, 0x1
 991:   88 f3                   mov    bl, dh
 993:   80 e3 fe                and    bl, 0xfe
 996:   40 08 fb                or     bl, dil
 999:   d0 c0                   rol    al, 1
 99b:   d0 c3                   rol    bl, 1
 99d:   e2 cd                   loop   0x96c
 99f:   88 c7                   mov    bh, al
 9a1:   66 c1 c3 08             rol    bx, 0x8
 9a5:   66 53                   push   bx
 9a7:   8a 04 24                mov    al, BYTE PTR [rsp]
 9aa:   ff c4                   inc    esp
 9ac:   a2 ef be ad de 00 00 00 00      movabs ds:secret[15], al
 9b5:   8a 04 24                mov    al, BYTE PTR [rsp]
 9b8:   ff c4                   inc    esp
 9ba:   a2 ef be ad de 00 00 00 00      movabs ds:secret[14], al


[+] L7>-L->-76<H?N3-6-3-N-?-H-<K9B-K-B-9=J;FCI-=-I-C-F-;-J8@O124-8-4-2-1-O-@M5:DGA-M-A-G-D-:-5A@&-@-AIH&-H-I98&-8-9GF&-F-G;:&-:-;76&-6-7ON&-N-OKJ&-J-K54&-4-5ML&-L-M32&-2-3ED&-D-E10&-0-1?>&->-?=<&-<-=CB&-B-C!
   0:   a0 ef be ad de 00 00 00 00      movabs al, ds:secret[28]
   9:   48 ff cc                dec    rsp
   c:   88 04 24                mov    BYTE PTR [rsp], al
   f:   a0 ef be ad de 00 00 00 00      movabs al, ds:secret[7]
  18:   48 ff cc                dec    rsp
  1b:   88 04 24                mov    BYTE PTR [rsp], al
  1e:   a0 ef be ad de 00 00 00 00      movabs al, ds:secret[14]
  27:   48 ff cc                dec    rsp
  2a:   88 04 24                mov    BYTE PTR [rsp], al
  2d:   8a 04 24                mov    al, BYTE PTR [rsp]
  30:   ff c4                   inc    esp
  32:   a2 ef be ad de 00 00 00 00      movabs ds:secret[28], al
  3b:   8a 04 24                mov    al, BYTE PTR [rsp]
  3e:   ff c4                   inc    esp
  40:   a2 ef be ad de 00 00 00 00      movabs ds:secret[14], al
  49:   8a 04 24                mov    al, BYTE PTR [rsp]
  4c:   ff c4                   inc    esp
  4e:   a2 ef be ad de 00 00 00 00      movabs ds:secret[7], al
  57:   a0 ef be ad de 00 00 00 00      movabs al, ds:secret[6]
  60:   48 ff cc                dec    rsp
  63:   88 04 24                mov    BYTE PTR [rsp], al
  66:   a0 ef be ad de 00 00 00 00      movabs al, ds:secret[12]
  6f:   48 ff cc                dec    rsp
  72:   88 04 24                mov    BYTE PTR [rsp], al
  75:   a0 ef be ad de 00 00 00 00      movabs al, ds:secret[24]
  7e:   48 ff cc                dec    rsp
  81:   88 04 24                mov    BYTE PTR [rsp], al
  84:   a0 ef be ad de 00 00 00 00      movabs al, ds:secret[15]
  8d:   48 ff cc                dec    rsp
  90:   88 04 24                mov    BYTE PTR [rsp], al
  93:   a0 ef be ad de 00 00 00 00      movabs al, ds:secret[30]
  9c:   48 ff cc                dec    rsp
  9f:   88 04 24                mov    BYTE PTR [rsp], al
  a2:   a0 ef be ad de 00 00 00 00      movabs al, ds:secret[3]
  ab:   48 ff cc                dec    rsp
  ae:   88 04 24                mov    BYTE PTR [rsp], al
  b1:   8a 04 24                mov    al, BYTE PTR [rsp]
  b4:   ff c4                   inc    esp
  b6:   a2 ef be ad de 00 00 00 00      movabs ds:secret[6], al
  bf:   8a 04 24                mov    al, BYTE PTR [rsp]
  c2:   ff c4                   inc    esp
  c4:   a2 ef be ad de 00 00 00 00      movabs ds:secret[3], al
  cd:   8a 04 24                mov    al, BYTE PTR [rsp]
  d0:   ff c4                   inc    esp
  d2:   a2 ef be ad de 00 00 00 00      movabs ds:secret[30], al
  db:   8a 04 24                mov    al, BYTE PTR [rsp]
  de:   ff c4                   inc    esp
  e0:   a2 ef be ad de 00 00 00 00      movabs ds:secret[15], al
  e9:   8a 04 24                mov    al, BYTE PTR [rsp]
  ec:   ff c4                   inc    esp
  ee:   a2 ef be ad de 00 00 00 00      movabs ds:secret[24], al
  f7:   8a 04 24                mov    al, BYTE PTR [rsp]
  fa:   ff c4                   inc    esp
  fc:   a2 ef be ad de 00 00 00 00      movabs ds:secret[12], al
 105:   a0 ef be ad de 00 00 00 00      movabs al, ds:secret[27]
 10e:   48 ff cc                dec    rsp
 111:   88 04 24                mov    BYTE PTR [rsp], al
 114:   a0 ef be ad de 00 00 00 00      movabs al, ds:secret[9]
 11d:   48 ff cc                dec    rsp
 120:   88 04 24                mov    BYTE PTR [rsp], al
 123:   a0 ef be ad de 00 00 00 00      movabs al, ds:secret[18]
 12c:   48 ff cc                dec    rsp
 12f:   88 04 24                mov    BYTE PTR [rsp], al
 132:   8a 04 24                mov    al, BYTE PTR [rsp]
 135:   ff c4                   inc    esp
 137:   a2 ef be ad de 00 00 00 00      movabs ds:secret[27], al
 140:   8a 04 24                mov    al, BYTE PTR [rsp]
 143:   ff c4                   inc    esp
 145:   a2 ef be ad de 00 00 00 00      movabs ds:secret[18], al
 14e:   8a 04 24                mov    al, BYTE PTR [rsp]
 151:   ff c4                   inc    esp
 153:   a2 ef be ad de 00 00 00 00      movabs ds:secret[9], al
 15c:   a0 ef be ad de 00 00 00 00      movabs al, ds:secret[13]
 165:   48 ff cc                dec    rsp
 168:   88 04 24                mov    BYTE PTR [rsp], al
 16b:   a0 ef be ad de 00 00 00 00      movabs al, ds:secret[26]
 174:   48 ff cc                dec    rsp
 177:   88 04 24                mov    BYTE PTR [rsp], al
 17a:   a0 ef be ad de 00 00 00 00      movabs al, ds:secret[11]
 183:   48 ff cc                dec    rsp
 186:   88 04 24                mov    BYTE PTR [rsp], al
 189:   a0 ef be ad de 00 00 00 00      movabs al, ds:secret[22]
 192:   48 ff cc                dec    rsp
 195:   88 04 24                mov    BYTE PTR [rsp], al
 198:   a0 ef be ad de 00 00 00 00      movabs al, ds:secret[19]
 1a1:   48 ff cc                dec    rsp
 1a4:   88 04 24                mov    BYTE PTR [rsp], al
 1a7:   a0 ef be ad de 00 00 00 00      movabs al, ds:secret[25]
 1b0:   48 ff cc                dec    rsp
 1b3:   88 04 24                mov    BYTE PTR [rsp], al
 1b6:   8a 04 24                mov    al, BYTE PTR [rsp]
 1b9:   ff c4                   inc    esp
 1bb:   a2 ef be ad de 00 00 00 00      movabs ds:secret[13], al
 1c4:   8a 04 24                mov    al, BYTE PTR [rsp]
 1c7:   ff c4                   inc    esp
 1c9:   a2 ef be ad de 00 00 00 00      movabs ds:secret[25], al
 1d2:   8a 04 24                mov    al, BYTE PTR [rsp]
 1d5:   ff c4                   inc    esp
 1d7:   a2 ef be ad de 00 00 00 00      movabs ds:secret[19], al
 1e0:   8a 04 24                mov    al, BYTE PTR [rsp]
 1e3:   ff c4                   inc    esp
 1e5:   a2 ef be ad de 00 00 00 00      movabs ds:secret[22], al
 1ee:   8a 04 24                mov    al, BYTE PTR [rsp]
 1f1:   ff c4                   inc    esp
 1f3:   a2 ef be ad de 00 00 00 00      movabs ds:secret[11], al
 1fc:   8a 04 24                mov    al, BYTE PTR [rsp]
 1ff:   ff c4                   inc    esp
 201:   a2 ef be ad de 00 00 00 00      movabs ds:secret[26], al
 20a:   a0 ef be ad de 00 00 00 00      movabs al, ds:secret[8]
 213:   48 ff cc                dec    rsp
 216:   88 04 24                mov    BYTE PTR [rsp], al
 219:   a0 ef be ad de 00 00 00 00      movabs al, ds:secret[16]
 222:   48 ff cc                dec    rsp
 225:   88 04 24                mov    BYTE PTR [rsp], al
 228:   a0 ef be ad de 00 00 00 00      movabs al, ds:secret[31]
 231:   48 ff cc                dec    rsp
 234:   88 04 24                mov    BYTE PTR [rsp], al
 237:   a0 ef be ad de 00 00 00 00      movabs al, ds:secret[1]
 240:   48 ff cc                dec    rsp
 243:   88 04 24                mov    BYTE PTR [rsp], al
 246:   a0 ef be ad de 00 00 00 00      movabs al, ds:secret[2]
 24f:   48 ff cc                dec    rsp
 252:   88 04 24                mov    BYTE PTR [rsp], al
 255:   a0 ef be ad de 00 00 00 00      movabs al, ds:secret[4]
 25e:   48 ff cc                dec    rsp
 261:   88 04 24                mov    BYTE PTR [rsp], al
 264:   8a 04 24                mov    al, BYTE PTR [rsp]
 267:   ff c4                   inc    esp
 269:   a2 ef be ad de 00 00 00 00      movabs ds:secret[8], al
 272:   8a 04 24                mov    al, BYTE PTR [rsp]
 275:   ff c4                   inc    esp
 277:   a2 ef be ad de 00 00 00 00      movabs ds:secret[4], al
 280:   8a 04 24                mov    al, BYTE PTR [rsp]
 283:   ff c4                   inc    esp
 285:   a2 ef be ad de 00 00 00 00      movabs ds:secret[2], al
 28e:   8a 04 24                mov    al, BYTE PTR [rsp]
 291:   ff c4                   inc    esp
 293:   a2 ef be ad de 00 00 00 00      movabs ds:secret[1], al
 29c:   8a 04 24                mov    al, BYTE PTR [rsp]
 29f:   ff c4                   inc    esp
 2a1:   a2 ef be ad de 00 00 00 00      movabs ds:secret[31], al
 2aa:   8a 04 24                mov    al, BYTE PTR [rsp]
 2ad:   ff c4                   inc    esp
 2af:   a2 ef be ad de 00 00 00 00      movabs ds:secret[16], al
 2b8:   a0 ef be ad de 00 00 00 00      movabs al, ds:secret[29]
 2c1:   48 ff cc                dec    rsp
 2c4:   88 04 24                mov    BYTE PTR [rsp], al
 2c7:   a0 ef be ad de 00 00 00 00      movabs al, ds:secret[5]
 2d0:   48 ff cc                dec    rsp
 2d3:   88 04 24                mov    BYTE PTR [rsp], al
 2d6:   a0 ef be ad de 00 00 00 00      movabs al, ds:secret[10]
 2df:   48 ff cc                dec    rsp
 2e2:   88 04 24                mov    BYTE PTR [rsp], al
 2e5:   a0 ef be ad de 00 00 00 00      movabs al, ds:secret[20]
 2ee:   48 ff cc                dec    rsp
 2f1:   88 04 24                mov    BYTE PTR [rsp], al
 2f4:   a0 ef be ad de 00 00 00 00      movabs al, ds:secret[23]
 2fd:   48 ff cc                dec    rsp
 300:   88 04 24                mov    BYTE PTR [rsp], al
 303:   a0 ef be ad de 00 00 00 00      movabs al, ds:secret[17]
 30c:   48 ff cc                dec    rsp
 30f:   88 04 24                mov    BYTE PTR [rsp], al
 312:   8a 04 24                mov    al, BYTE PTR [rsp]
 315:   ff c4                   inc    esp
 317:   a2 ef be ad de 00 00 00 00      movabs ds:secret[29], al
 320:   8a 04 24                mov    al, BYTE PTR [rsp]
 323:   ff c4                   inc    esp
 325:   a2 ef be ad de 00 00 00 00      movabs ds:secret[17], al
 32e:   8a 04 24                mov    al, BYTE PTR [rsp]
 331:   ff c4                   inc    esp
 333:   a2 ef be ad de 00 00 00 00      movabs ds:secret[23], al
 33c:   8a 04 24                mov    al, BYTE PTR [rsp]
 33f:   ff c4                   inc    esp
 341:   a2 ef be ad de 00 00 00 00      movabs ds:secret[20], al
 34a:   8a 04 24                mov    al, BYTE PTR [rsp]
 34d:   ff c4                   inc    esp
 34f:   a2 ef be ad de 00 00 00 00      movabs ds:secret[10], al
 358:   8a 04 24                mov    al, BYTE PTR [rsp]
 35b:   ff c4                   inc    esp
 35d:   a2 ef be ad de 00 00 00 00      movabs ds:secret[5], al
 366:   a0 ef be ad de 00 00 00 00      movabs al, ds:secret[17]
 36f:   48 ff cc                dec    rsp
 372:   88 04 24                mov    BYTE PTR [rsp], al
 375:   a0 ef be ad de 00 00 00 00      movabs al, ds:secret[16]
 37e:   48 ff cc                dec    rsp
 381:   88 04 24                mov    BYTE PTR [rsp], al
 384:   66 5b                   pop    bx
 386:   b9 08 00 00 00          mov    ecx, 0x8
 38b:   48 31 c0                xor    rax, rax
 38e:   86 f8                   xchg   al, bh
 390:   88 c2                   mov    dl, al
 392:   88 de                   mov    dh, bl
 394:   48 83 e0 01             and    rax, 0x1
 398:   48 83 e3 01             and    rbx, 0x1
 39c:   40 8a bc 43 8f 1b 60 00         mov    dil, BYTE PTR [rbx+rax*2+0x601b8f]
 3a4:   40 88 fe                mov    sil, dil
 3a7:   40 d0 ee                shr    sil, 1
 3aa:   88 d0                   mov    al, dl
 3ac:   24 fe                   and    al, 0xfe
 3ae:   40 08 f0                or     al, sil
 3b1:   40 80 e7 01             and    dil, 0x1
 3b5:   88 f3                   mov    bl, dh
 3b7:   80 e3 fe                and    bl, 0xfe
 3ba:   40 08 fb                or     bl, dil
 3bd:   d0 c0                   rol    al, 1
 3bf:   d0 c3                   rol    bl, 1
 3c1:   e2 cd                   loop   0x390
 3c3:   88 c7                   mov    bh, al
 3c5:   66 c1 c3 08             rol    bx, 0x8
 3c9:   66 53                   push   bx
 3cb:   8a 04 24                mov    al, BYTE PTR [rsp]
 3ce:   ff c4                   inc    esp
 3d0:   a2 ef be ad de 00 00 00 00      movabs ds:secret[16], al
 3d9:   8a 04 24                mov    al, BYTE PTR [rsp]
 3dc:   ff c4                   inc    esp
 3de:   a2 ef be ad de 00 00 00 00      movabs ds:secret[17], al
 3e7:   a0 ef be ad de 00 00 00 00      movabs al, ds:secret[25]
 3f0:   48 ff cc                dec    rsp
 3f3:   88 04 24                mov    BYTE PTR [rsp], al
 3f6:   a0 ef be ad de 00 00 00 00      movabs al, ds:secret[24]
 3ff:   48 ff cc                dec    rsp
 402:   88 04 24                mov    BYTE PTR [rsp], al
 405:   66 5b                   pop    bx
 407:   b9 08 00 00 00          mov    ecx, 0x8
 40c:   48 31 c0                xor    rax, rax
 40f:   86 f8                   xchg   al, bh
 411:   88 c2                   mov    dl, al
 413:   88 de                   mov    dh, bl
 415:   48 83 e0 01             and    rax, 0x1
 419:   48 83 e3 01             and    rbx, 0x1
 41d:   40 8a bc 43 8f 1b 60 00         mov    dil, BYTE PTR [rbx+rax*2+0x601b8f]
 425:   40 88 fe                mov    sil, dil
 428:   40 d0 ee                shr    sil, 1
 42b:   88 d0                   mov    al, dl
 42d:   24 fe                   and    al, 0xfe
 42f:   40 08 f0                or     al, sil
 432:   40 80 e7 01             and    dil, 0x1
 436:   88 f3                   mov    bl, dh
 438:   80 e3 fe                and    bl, 0xfe
 43b:   40 08 fb                or     bl, dil
 43e:   d0 c0                   rol    al, 1
 440:   d0 c3                   rol    bl, 1
 442:   e2 cd                   loop   0x411
 444:   88 c7                   mov    bh, al
 446:   66 c1 c3 08             rol    bx, 0x8
 44a:   66 53                   push   bx
 44c:   8a 04 24                mov    al, BYTE PTR [rsp]
 44f:   ff c4                   inc    esp
 451:   a2 ef be ad de 00 00 00 00      movabs ds:secret[24], al
 45a:   8a 04 24                mov    al, BYTE PTR [rsp]
 45d:   ff c4                   inc    esp
 45f:   a2 ef be ad de 00 00 00 00      movabs ds:secret[25], al
 468:   a0 ef be ad de 00 00 00 00      movabs al, ds:secret[9]
 471:   48 ff cc                dec    rsp
 474:   88 04 24                mov    BYTE PTR [rsp], al
 477:   a0 ef be ad de 00 00 00 00      movabs al, ds:secret[8]
 480:   48 ff cc                dec    rsp
 483:   88 04 24                mov    BYTE PTR [rsp], al
 486:   66 5b                   pop    bx
 488:   b9 08 00 00 00          mov    ecx, 0x8
 48d:   48 31 c0                xor    rax, rax
 490:   86 f8                   xchg   al, bh
 492:   88 c2                   mov    dl, al
 494:   88 de                   mov    dh, bl
 496:   48 83 e0 01             and    rax, 0x1
 49a:   48 83 e3 01             and    rbx, 0x1
 49e:   40 8a bc 43 8f 1b 60 00         mov    dil, BYTE PTR [rbx+rax*2+0x601b8f]
 4a6:   40 88 fe                mov    sil, dil
 4a9:   40 d0 ee                shr    sil, 1
 4ac:   88 d0                   mov    al, dl
 4ae:   24 fe                   and    al, 0xfe
 4b0:   40 08 f0                or     al, sil
 4b3:   40 80 e7 01             and    dil, 0x1
 4b7:   88 f3                   mov    bl, dh
 4b9:   80 e3 fe                and    bl, 0xfe
 4bc:   40 08 fb                or     bl, dil
 4bf:   d0 c0                   rol    al, 1
 4c1:   d0 c3                   rol    bl, 1
 4c3:   e2 cd                   loop   0x492
 4c5:   88 c7                   mov    bh, al
 4c7:   66 c1 c3 08             rol    bx, 0x8
 4cb:   66 53                   push   bx
 4cd:   8a 04 24                mov    al, BYTE PTR [rsp]
 4d0:   ff c4                   inc    esp
 4d2:   a2 ef be ad de 00 00 00 00      movabs ds:secret[8], al
 4db:   8a 04 24                mov    al, BYTE PTR [rsp]
 4de:   ff c4                   inc    esp
 4e0:   a2 ef be ad de 00 00 00 00      movabs ds:secret[9], al
 4e9:   a0 ef be ad de 00 00 00 00      movabs al, ds:secret[23]
 4f2:   48 ff cc                dec    rsp
 4f5:   88 04 24                mov    BYTE PTR [rsp], al
 4f8:   a0 ef be ad de 00 00 00 00      movabs al, ds:secret[22]
 501:   48 ff cc                dec    rsp
 504:   88 04 24                mov    BYTE PTR [rsp], al
 507:   66 5b                   pop    bx
 509:   b9 08 00 00 00          mov    ecx, 0x8
 50e:   48 31 c0                xor    rax, rax
 511:   86 f8                   xchg   al, bh
 513:   88 c2                   mov    dl, al
 515:   88 de                   mov    dh, bl
 517:   48 83 e0 01             and    rax, 0x1
 51b:   48 83 e3 01             and    rbx, 0x1
 51f:   40 8a bc 43 8f 1b 60 00         mov    dil, BYTE PTR [rbx+rax*2+0x601b8f]
 527:   40 88 fe                mov    sil, dil
 52a:   40 d0 ee                shr    sil, 1
 52d:   88 d0                   mov    al, dl
 52f:   24 fe                   and    al, 0xfe
 531:   40 08 f0                or     al, sil
 534:   40 80 e7 01             and    dil, 0x1
 538:   88 f3                   mov    bl, dh
 53a:   80 e3 fe                and    bl, 0xfe
 53d:   40 08 fb                or     bl, dil
 540:   d0 c0                   rol    al, 1
 542:   d0 c3                   rol    bl, 1
 544:   e2 cd                   loop   0x513
 546:   88 c7                   mov    bh, al
 548:   66 c1 c3 08             rol    bx, 0x8
 54c:   66 53                   push   bx
 54e:   8a 04 24                mov    al, BYTE PTR [rsp]
 551:   ff c4                   inc    esp
 553:   a2 ef be ad de 00 00 00 00      movabs ds:secret[22], al
 55c:   8a 04 24                mov    al, BYTE PTR [rsp]
 55f:   ff c4                   inc    esp
 561:   a2 ef be ad de 00 00 00 00      movabs ds:secret[23], al
 56a:   a0 ef be ad de 00 00 00 00      movabs al, ds:secret[11]
 573:   48 ff cc                dec    rsp
 576:   88 04 24                mov    BYTE PTR [rsp], al
 579:   a0 ef be ad de 00 00 00 00      movabs al, ds:secret[10]
 582:   48 ff cc                dec    rsp
 585:   88 04 24                mov    BYTE PTR [rsp], al
 588:   66 5b                   pop    bx
 58a:   b9 08 00 00 00          mov    ecx, 0x8
 58f:   48 31 c0                xor    rax, rax
 592:   86 f8                   xchg   al, bh
 594:   88 c2                   mov    dl, al
 596:   88 de                   mov    dh, bl
 598:   48 83 e0 01             and    rax, 0x1
 59c:   48 83 e3 01             and    rbx, 0x1
 5a0:   40 8a bc 43 8f 1b 60 00         mov    dil, BYTE PTR [rbx+rax*2+0x601b8f]
 5a8:   40 88 fe                mov    sil, dil
 5ab:   40 d0 ee                shr    sil, 1
 5ae:   88 d0                   mov    al, dl
 5b0:   24 fe                   and    al, 0xfe
 5b2:   40 08 f0                or     al, sil
 5b5:   40 80 e7 01             and    dil, 0x1
 5b9:   88 f3                   mov    bl, dh
 5bb:   80 e3 fe                and    bl, 0xfe
 5be:   40 08 fb                or     bl, dil
 5c1:   d0 c0                   rol    al, 1
 5c3:   d0 c3                   rol    bl, 1
 5c5:   e2 cd                   loop   0x594
 5c7:   88 c7                   mov    bh, al
 5c9:   66 c1 c3 08             rol    bx, 0x8
 5cd:   66 53                   push   bx
 5cf:   8a 04 24                mov    al, BYTE PTR [rsp]
 5d2:   ff c4                   inc    esp
 5d4:   a2 ef be ad de 00 00 00 00      movabs ds:secret[10], al
 5dd:   8a 04 24                mov    al, BYTE PTR [rsp]
 5e0:   ff c4                   inc    esp
 5e2:   a2 ef be ad de 00 00 00 00      movabs ds:secret[11], al
 5eb:   a0 ef be ad de 00 00 00 00      movabs al, ds:secret[7]
 5f4:   48 ff cc                dec    rsp
 5f7:   88 04 24                mov    BYTE PTR [rsp], al
 5fa:   a0 ef be ad de 00 00 00 00      movabs al, ds:secret[6]
 603:   48 ff cc                dec    rsp
 606:   88 04 24                mov    BYTE PTR [rsp], al
 609:   66 5b                   pop    bx
 60b:   b9 08 00 00 00          mov    ecx, 0x8
 610:   48 31 c0                xor    rax, rax
 613:   86 f8                   xchg   al, bh
 615:   88 c2                   mov    dl, al
 617:   88 de                   mov    dh, bl
 619:   48 83 e0 01             and    rax, 0x1
 61d:   48 83 e3 01             and    rbx, 0x1
 621:   40 8a bc 43 8f 1b 60 00         mov    dil, BYTE PTR [rbx+rax*2+0x601b8f]
 629:   40 88 fe                mov    sil, dil
 62c:   40 d0 ee                shr    sil, 1
 62f:   88 d0                   mov    al, dl
 631:   24 fe                   and    al, 0xfe
 633:   40 08 f0                or     al, sil
 636:   40 80 e7 01             and    dil, 0x1
 63a:   88 f3                   mov    bl, dh
 63c:   80 e3 fe                and    bl, 0xfe
 63f:   40 08 fb                or     bl, dil
 642:   d0 c0                   rol    al, 1
 644:   d0 c3                   rol    bl, 1
 646:   e2 cd                   loop   0x615
 648:   88 c7                   mov    bh, al
 64a:   66 c1 c3 08             rol    bx, 0x8
 64e:   66 53                   push   bx
 650:   8a 04 24                mov    al, BYTE PTR [rsp]
 653:   ff c4                   inc    esp
 655:   a2 ef be ad de 00 00 00 00      movabs ds:secret[6], al
 65e:   8a 04 24                mov    al, BYTE PTR [rsp]
 661:   ff c4                   inc    esp
 663:   a2 ef be ad de 00 00 00 00      movabs ds:secret[7], al
 66c:   a0 ef be ad de 00 00 00 00      movabs al, ds:secret[31]
 675:   48 ff cc                dec    rsp
 678:   88 04 24                mov    BYTE PTR [rsp], al
 67b:   a0 ef be ad de 00 00 00 00      movabs al, ds:secret[30]
 684:   48 ff cc                dec    rsp
 687:   88 04 24                mov    BYTE PTR [rsp], al
 68a:   66 5b                   pop    bx
 68c:   b9 08 00 00 00          mov    ecx, 0x8
 691:   48 31 c0                xor    rax, rax
 694:   86 f8                   xchg   al, bh
 696:   88 c2                   mov    dl, al
 698:   88 de                   mov    dh, bl
 69a:   48 83 e0 01             and    rax, 0x1
 69e:   48 83 e3 01             and    rbx, 0x1
 6a2:   40 8a bc 43 8f 1b 60 00         mov    dil, BYTE PTR [rbx+rax*2+0x601b8f]
 6aa:   40 88 fe                mov    sil, dil
 6ad:   40 d0 ee                shr    sil, 1
 6b0:   88 d0                   mov    al, dl
 6b2:   24 fe                   and    al, 0xfe
 6b4:   40 08 f0                or     al, sil
 6b7:   40 80 e7 01             and    dil, 0x1
 6bb:   88 f3                   mov    bl, dh
 6bd:   80 e3 fe                and    bl, 0xfe
 6c0:   40 08 fb                or     bl, dil
 6c3:   d0 c0                   rol    al, 1
 6c5:   d0 c3                   rol    bl, 1
 6c7:   e2 cd                   loop   0x696
 6c9:   88 c7                   mov    bh, al
 6cb:   66 c1 c3 08             rol    bx, 0x8
 6cf:   66 53                   push   bx
 6d1:   8a 04 24                mov    al, BYTE PTR [rsp]
 6d4:   ff c4                   inc    esp
 6d6:   a2 ef be ad de 00 00 00 00      movabs ds:secret[30], al
 6df:   8a 04 24                mov    al, BYTE PTR [rsp]
 6e2:   ff c4                   inc    esp
 6e4:   a2 ef be ad de 00 00 00 00      movabs ds:secret[31], al
 6ed:   a0 ef be ad de 00 00 00 00      movabs al, ds:secret[27]
 6f6:   48 ff cc                dec    rsp
 6f9:   88 04 24                mov    BYTE PTR [rsp], al
 6fc:   a0 ef be ad de 00 00 00 00      movabs al, ds:secret[26]
 705:   48 ff cc                dec    rsp
 708:   88 04 24                mov    BYTE PTR [rsp], al
 70b:   66 5b                   pop    bx
 70d:   b9 08 00 00 00          mov    ecx, 0x8
 712:   48 31 c0                xor    rax, rax
 715:   86 f8                   xchg   al, bh
 717:   88 c2                   mov    dl, al
 719:   88 de                   mov    dh, bl
 71b:   48 83 e0 01             and    rax, 0x1
 71f:   48 83 e3 01             and    rbx, 0x1
 723:   40 8a bc 43 8f 1b 60 00         mov    dil, BYTE PTR [rbx+rax*2+0x601b8f]
 72b:   40 88 fe                mov    sil, dil
 72e:   40 d0 ee                shr    sil, 1
 731:   88 d0                   mov    al, dl
 733:   24 fe                   and    al, 0xfe
 735:   40 08 f0                or     al, sil
 738:   40 80 e7 01             and    dil, 0x1
 73c:   88 f3                   mov    bl, dh
 73e:   80 e3 fe                and    bl, 0xfe
 741:   40 08 fb                or     bl, dil
 744:   d0 c0                   rol    al, 1
 746:   d0 c3                   rol    bl, 1
 748:   e2 cd                   loop   0x717
 74a:   88 c7                   mov    bh, al
 74c:   66 c1 c3 08             rol    bx, 0x8
 750:   66 53                   push   bx
 752:   8a 04 24                mov    al, BYTE PTR [rsp]
 755:   ff c4                   inc    esp
 757:   a2 ef be ad de 00 00 00 00      movabs ds:secret[26], al
 760:   8a 04 24                mov    al, BYTE PTR [rsp]
 763:   ff c4                   inc    esp
 765:   a2 ef be ad de 00 00 00 00      movabs ds:secret[27], al
 76e:   a0 ef be ad de 00 00 00 00      movabs al, ds:secret[5]
 777:   48 ff cc                dec    rsp
 77a:   88 04 24                mov    BYTE PTR [rsp], al
 77d:   a0 ef be ad de 00 00 00 00      movabs al, ds:secret[4]
 786:   48 ff cc                dec    rsp
 789:   88 04 24                mov    BYTE PTR [rsp], al
 78c:   66 5b                   pop    bx
 78e:   b9 08 00 00 00          mov    ecx, 0x8
 793:   48 31 c0                xor    rax, rax
 796:   86 f8                   xchg   al, bh
 798:   88 c2                   mov    dl, al
 79a:   88 de                   mov    dh, bl
 79c:   48 83 e0 01             and    rax, 0x1
 7a0:   48 83 e3 01             and    rbx, 0x1
 7a4:   40 8a bc 43 8f 1b 60 00         mov    dil, BYTE PTR [rbx+rax*2+0x601b8f]
 7ac:   40 88 fe                mov    sil, dil
 7af:   40 d0 ee                shr    sil, 1
 7b2:   88 d0                   mov    al, dl
 7b4:   24 fe                   and    al, 0xfe
 7b6:   40 08 f0                or     al, sil
 7b9:   40 80 e7 01             and    dil, 0x1
 7bd:   88 f3                   mov    bl, dh
 7bf:   80 e3 fe                and    bl, 0xfe
 7c2:   40 08 fb                or     bl, dil
 7c5:   d0 c0                   rol    al, 1
 7c7:   d0 c3                   rol    bl, 1
 7c9:   e2 cd                   loop   0x798
 7cb:   88 c7                   mov    bh, al
 7cd:   66 c1 c3 08             rol    bx, 0x8
 7d1:   66 53                   push   bx
 7d3:   8a 04 24                mov    al, BYTE PTR [rsp]
 7d6:   ff c4                   inc    esp
 7d8:   a2 ef be ad de 00 00 00 00      movabs ds:secret[4], al
 7e1:   8a 04 24                mov    al, BYTE PTR [rsp]
 7e4:   ff c4                   inc    esp
 7e6:   a2 ef be ad de 00 00 00 00      movabs ds:secret[5], al
 7ef:   a0 ef be ad de 00 00 00 00      movabs al, ds:secret[29]
 7f8:   48 ff cc                dec    rsp
 7fb:   88 04 24                mov    BYTE PTR [rsp], al
 7fe:   a0 ef be ad de 00 00 00 00      movabs al, ds:secret[28]
 807:   48 ff cc                dec    rsp
 80a:   88 04 24                mov    BYTE PTR [rsp], al
 80d:   66 5b                   pop    bx
 80f:   b9 08 00 00 00          mov    ecx, 0x8
 814:   48 31 c0                xor    rax, rax
 817:   86 f8                   xchg   al, bh
 819:   88 c2                   mov    dl, al
 81b:   88 de                   mov    dh, bl
 81d:   48 83 e0 01             and    rax, 0x1
 821:   48 83 e3 01             and    rbx, 0x1
 825:   40 8a bc 43 8f 1b 60 00         mov    dil, BYTE PTR [rbx+rax*2+0x601b8f]
 82d:   40 88 fe                mov    sil, dil
 830:   40 d0 ee                shr    sil, 1
 833:   88 d0                   mov    al, dl
 835:   24 fe                   and    al, 0xfe
 837:   40 08 f0                or     al, sil
 83a:   40 80 e7 01             and    dil, 0x1
 83e:   88 f3                   mov    bl, dh
 840:   80 e3 fe                and    bl, 0xfe
 843:   40 08 fb                or     bl, dil
 846:   d0 c0                   rol    al, 1
 848:   d0 c3                   rol    bl, 1
 84a:   e2 cd                   loop   0x819
 84c:   88 c7                   mov    bh, al
 84e:   66 c1 c3 08             rol    bx, 0x8
 852:   66 53                   push   bx
 854:   8a 04 24                mov    al, BYTE PTR [rsp]
 857:   ff c4                   inc    esp
 859:   a2 ef be ad de 00 00 00 00      movabs ds:secret[28], al
 862:   8a 04 24                mov    al, BYTE PTR [rsp]
 865:   ff c4                   inc    esp
 867:   a2 ef be ad de 00 00 00 00      movabs ds:secret[29], al
 870:   a0 ef be ad de 00 00 00 00      movabs al, ds:secret[3]
 879:   48 ff cc                dec    rsp
 87c:   88 04 24                mov    BYTE PTR [rsp], al
 87f:   a0 ef be ad de 00 00 00 00      movabs al, ds:secret[2]
 888:   48 ff cc                dec    rsp
 88b:   88 04 24                mov    BYTE PTR [rsp], al
 88e:   66 5b                   pop    bx
 890:   b9 08 00 00 00          mov    ecx, 0x8
 895:   48 31 c0                xor    rax, rax
 898:   86 f8                   xchg   al, bh
 89a:   88 c2                   mov    dl, al
 89c:   88 de                   mov    dh, bl
 89e:   48 83 e0 01             and    rax, 0x1
 8a2:   48 83 e3 01             and    rbx, 0x1
 8a6:   40 8a bc 43 8f 1b 60 00         mov    dil, BYTE PTR [rbx+rax*2+0x601b8f]
 8ae:   40 88 fe                mov    sil, dil
 8b1:   40 d0 ee                shr    sil, 1
 8b4:   88 d0                   mov    al, dl
 8b6:   24 fe                   and    al, 0xfe
 8b8:   40 08 f0                or     al, sil
 8bb:   40 80 e7 01             and    dil, 0x1
 8bf:   88 f3                   mov    bl, dh
 8c1:   80 e3 fe                and    bl, 0xfe
 8c4:   40 08 fb                or     bl, dil
 8c7:   d0 c0                   rol    al, 1
 8c9:   d0 c3                   rol    bl, 1
 8cb:   e2 cd                   loop   0x89a
 8cd:   88 c7                   mov    bh, al
 8cf:   66 c1 c3 08             rol    bx, 0x8
 8d3:   66 53                   push   bx
 8d5:   8a 04 24                mov    al, BYTE PTR [rsp]
 8d8:   ff c4                   inc    esp
 8da:   a2 ef be ad de 00 00 00 00      movabs ds:secret[2], al
 8e3:   8a 04 24                mov    al, BYTE PTR [rsp]
 8e6:   ff c4                   inc    esp
 8e8:   a2 ef be ad de 00 00 00 00      movabs ds:secret[3], al
 8f1:   a0 ef be ad de 00 00 00 00      movabs al, ds:secret[21]
 8fa:   48 ff cc                dec    rsp
 8fd:   88 04 24                mov    BYTE PTR [rsp], al
 900:   a0 ef be ad de 00 00 00 00      movabs al, ds:secret[20]
 909:   48 ff cc                dec    rsp
 90c:   88 04 24                mov    BYTE PTR [rsp], al
 90f:   66 5b                   pop    bx
 911:   b9 08 00 00 00          mov    ecx, 0x8
 916:   48 31 c0                xor    rax, rax
 919:   86 f8                   xchg   al, bh
 91b:   88 c2                   mov    dl, al
 91d:   88 de                   mov    dh, bl
 91f:   48 83 e0 01             and    rax, 0x1
 923:   48 83 e3 01             and    rbx, 0x1
 927:   40 8a bc 43 8f 1b 60 00         mov    dil, BYTE PTR [rbx+rax*2+0x601b8f]
 92f:   40 88 fe                mov    sil, dil
 932:   40 d0 ee                shr    sil, 1
 935:   88 d0                   mov    al, dl
 937:   24 fe                   and    al, 0xfe
 939:   40 08 f0                or     al, sil
 93c:   40 80 e7 01             and    dil, 0x1
 940:   88 f3                   mov    bl, dh
 942:   80 e3 fe                and    bl, 0xfe
 945:   40 08 fb                or     bl, dil
 948:   d0 c0                   rol    al, 1
 94a:   d0 c3                   rol    bl, 1
 94c:   e2 cd                   loop   0x91b
 94e:   88 c7                   mov    bh, al
 950:   66 c1 c3 08             rol    bx, 0x8
 954:   66 53                   push   bx
 956:   8a 04 24                mov    al, BYTE PTR [rsp]
 959:   ff c4                   inc    esp
 95b:   a2 ef be ad de 00 00 00 00      movabs ds:secret[20], al
 964:   8a 04 24                mov    al, BYTE PTR [rsp]
 967:   ff c4                   inc    esp
 969:   a2 ef be ad de 00 00 00 00      movabs ds:secret[21], al
 972:   a0 ef be ad de 00 00 00 00      movabs al, ds:secret[1]
 97b:   48 ff cc                dec    rsp
 97e:   88 04 24                mov    BYTE PTR [rsp], al
 981:   a0 ef be ad de 00 00 00 00      movabs al, ds:secret[0]
 98a:   48 ff cc                dec    rsp
 98d:   88 04 24                mov    BYTE PTR [rsp], al
 990:   66 5b                   pop    bx
 992:   b9 08 00 00 00          mov    ecx, 0x8
 997:   48 31 c0                xor    rax, rax
 99a:   86 f8                   xchg   al, bh
 99c:   88 c2                   mov    dl, al
 99e:   88 de                   mov    dh, bl
 9a0:   48 83 e0 01             and    rax, 0x1
 9a4:   48 83 e3 01             and    rbx, 0x1
 9a8:   40 8a bc 43 8f 1b 60 00         mov    dil, BYTE PTR [rbx+rax*2+0x601b8f]
 9b0:   40 88 fe                mov    sil, dil
 9b3:   40 d0 ee                shr    sil, 1
 9b6:   88 d0                   mov    al, dl
 9b8:   24 fe                   and    al, 0xfe
 9ba:   40 08 f0                or     al, sil
 9bd:   40 80 e7 01             and    dil, 0x1
 9c1:   88 f3                   mov    bl, dh
 9c3:   80 e3 fe                and    bl, 0xfe
 9c6:   40 08 fb                or     bl, dil
 9c9:   d0 c0                   rol    al, 1
 9cb:   d0 c3                   rol    bl, 1
 9cd:   e2 cd                   loop   0x99c
 9cf:   88 c7                   mov    bh, al
 9d1:   66 c1 c3 08             rol    bx, 0x8
 9d5:   66 53                   push   bx
 9d7:   8a 04 24                mov    al, BYTE PTR [rsp]
 9da:   ff c4                   inc    esp
 9dc:   a2 ef be ad de 00 00 00 00      movabs ds:secret[0], al
 9e5:   8a 04 24                mov    al, BYTE PTR [rsp]
 9e8:   ff c4                   inc    esp
 9ea:   a2 ef be ad de 00 00 00 00      movabs ds:secret[1], al
 9f3:   a0 ef be ad de 00 00 00 00      movabs al, ds:secret[15]
 9fc:   48 ff cc                dec    rsp
 9ff:   88 04 24                mov    BYTE PTR [rsp], al
 a02:   a0 ef be ad de 00 00 00 00      movabs al, ds:secret[14]
 a0b:   48 ff cc                dec    rsp
 a0e:   88 04 24                mov    BYTE PTR [rsp], al
 a11:   66 5b                   pop    bx
 a13:   b9 08 00 00 00          mov    ecx, 0x8
 a18:   48 31 c0                xor    rax, rax
 a1b:   86 f8                   xchg   al, bh
 a1d:   88 c2                   mov    dl, al
 a1f:   88 de                   mov    dh, bl
 a21:   48 83 e0 01             and    rax, 0x1
 a25:   48 83 e3 01             and    rbx, 0x1
 a29:   40 8a bc 43 8f 1b 60 00         mov    dil, BYTE PTR [rbx+rax*2+0x601b8f]
 a31:   40 88 fe                mov    sil, dil
 a34:   40 d0 ee                shr    sil, 1
 a37:   88 d0                   mov    al, dl
 a39:   24 fe                   and    al, 0xfe
 a3b:   40 08 f0                or     al, sil
 a3e:   40 80 e7 01             and    dil, 0x1
 a42:   88 f3                   mov    bl, dh
 a44:   80 e3 fe                and    bl, 0xfe
 a47:   40 08 fb                or     bl, dil
 a4a:   d0 c0                   rol    al, 1
 a4c:   d0 c3                   rol    bl, 1
 a4e:   e2 cd                   loop   0xa1d
 a50:   88 c7                   mov    bh, al
 a52:   66 c1 c3 08             rol    bx, 0x8
 a56:   66 53                   push   bx
 a58:   8a 04 24                mov    al, BYTE PTR [rsp]
 a5b:   ff c4                   inc    esp
 a5d:   a2 ef be ad de 00 00 00 00      movabs ds:secret[14], al
 a66:   8a 04 24                mov    al, BYTE PTR [rsp]
 a69:   ff c4                   inc    esp
 a6b:   a2 ef be ad de 00 00 00 00      movabs ds:secret[15], al
 a74:   a0 ef be ad de 00 00 00 00      movabs al, ds:secret[13]
 a7d:   48 ff cc                dec    rsp
 a80:   88 04 24                mov    BYTE PTR [rsp], al
 a83:   a0 ef be ad de 00 00 00 00      movabs al, ds:secret[12]
 a8c:   48 ff cc                dec    rsp
 a8f:   88 04 24                mov    BYTE PTR [rsp], al
 a92:   66 5b                   pop    bx
 a94:   b9 08 00 00 00          mov    ecx, 0x8
 a99:   48 31 c0                xor    rax, rax
 a9c:   86 f8                   xchg   al, bh
 a9e:   88 c2                   mov    dl, al
 aa0:   88 de                   mov    dh, bl
 aa2:   48 83 e0 01             and    rax, 0x1
 aa6:   48 83 e3 01             and    rbx, 0x1
 aaa:   40 8a bc 43 8f 1b 60 00         mov    dil, BYTE PTR [rbx+rax*2+0x601b8f]
 ab2:   40 88 fe                mov    sil, dil
 ab5:   40 d0 ee                shr    sil, 1
 ab8:   88 d0                   mov    al, dl
 aba:   24 fe                   and    al, 0xfe
 abc:   40 08 f0                or     al, sil
 abf:   40 80 e7 01             and    dil, 0x1
 ac3:   88 f3                   mov    bl, dh
 ac5:   80 e3 fe                and    bl, 0xfe
 ac8:   40 08 fb                or     bl, dil
 acb:   d0 c0                   rol    al, 1
 acd:   d0 c3                   rol    bl, 1
 acf:   e2 cd                   loop   0xa9e
 ad1:   88 c7                   mov    bh, al
 ad3:   66 c1 c3 08             rol    bx, 0x8
 ad7:   66 53                   push   bx
 ad9:   8a 04 24                mov    al, BYTE PTR [rsp]
 adc:   ff c4                   inc    esp
 ade:   a2 ef be ad de 00 00 00 00      movabs ds:secret[12], al
 ae7:   8a 04 24                mov    al, BYTE PTR [rsp]
 aea:   ff c4                   inc    esp
 aec:   a2 ef be ad de 00 00 00 00      movabs ds:secret[13], al
 af5:   a0 ef be ad de 00 00 00 00      movabs al, ds:secret[19]
 afe:   48 ff cc                dec    rsp
 b01:   88 04 24                mov    BYTE PTR [rsp], al
 b04:   a0 ef be ad de 00 00 00 00      movabs al, ds:secret[18]
 b0d:   48 ff cc                dec    rsp
 b10:   88 04 24                mov    BYTE PTR [rsp], al
 b13:   66 5b                   pop    bx
 b15:   b9 08 00 00 00          mov    ecx, 0x8
 b1a:   48 31 c0                xor    rax, rax
 b1d:   86 f8                   xchg   al, bh
 b1f:   88 c2                   mov    dl, al
 b21:   88 de                   mov    dh, bl
 b23:   48 83 e0 01             and    rax, 0x1
 b27:   48 83 e3 01             and    rbx, 0x1
 b2b:   40 8a bc 43 8f 1b 60 00         mov    dil, BYTE PTR [rbx+rax*2+0x601b8f]
 b33:   40 88 fe                mov    sil, dil
 b36:   40 d0 ee                shr    sil, 1
 b39:   88 d0                   mov    al, dl
 b3b:   24 fe                   and    al, 0xfe
 b3d:   40 08 f0                or     al, sil
 b40:   40 80 e7 01             and    dil, 0x1
 b44:   88 f3                   mov    bl, dh
 b46:   80 e3 fe                and    bl, 0xfe
 b49:   40 08 fb                or     bl, dil
 b4c:   d0 c0                   rol    al, 1
 b4e:   d0 c3                   rol    bl, 1
 b50:   e2 cd                   loop   0xb1f
 b52:   88 c7                   mov    bh, al
 b54:   66 c1 c3 08             rol    bx, 0x8
 b58:   66 53                   push   bx
 b5a:   8a 04 24                mov    al, BYTE PTR [rsp]
 b5d:   ff c4                   inc    esp
 b5f:   a2 ef be ad de 00 00 00 00      movabs ds:secret[18], al
 b68:   8a 04 24                mov    al, BYTE PTR [rsp]
 b6b:   ff c4                   inc    esp
 b6d:   a2 ef be ad de 00 00 00 00      movabs ds:secret[19], al


[+] C7@1LI-C-I-L-1-@-74F=-4-=-FKG?0NM-K-M-N-0-?-GHA3-H-3-A5D9<6B-5-B-6-<-9-DJE;8>2-J-2->-8-;-EFG&-G-FNO&-O-NBC&-C-BDE&-E-D@A&-A-@67&-7-689&-9-8<=&-=-<JK&-K-J01&-1-0HI&-I-H45&-5-423&-3-2LM&-M-L>?&-?->:;&-;-:!
   0:   a0 ef be ad de 00 00 00 00      movabs al, ds:secret[19]
   9:   48 ff cc                dec    rsp
   c:   88 04 24                mov    BYTE PTR [rsp], al
   f:   a0 ef be ad de 00 00 00 00      movabs al, ds:secret[7]
  18:   48 ff cc                dec    rsp
  1b:   88 04 24                mov    BYTE PTR [rsp], al
  1e:   a0 ef be ad de 00 00 00 00      movabs al, ds:secret[16]
  27:   48 ff cc                dec    rsp
  2a:   88 04 24                mov    BYTE PTR [rsp], al
  2d:   a0 ef be ad de 00 00 00 00      movabs al, ds:secret[1]
  36:   48 ff cc                dec    rsp
  39:   88 04 24                mov    BYTE PTR [rsp], al
  3c:   a0 ef be ad de 00 00 00 00      movabs al, ds:secret[28]
  45:   48 ff cc                dec    rsp
  48:   88 04 24                mov    BYTE PTR [rsp], al
  4b:   a0 ef be ad de 00 00 00 00      movabs al, ds:secret[25]
  54:   48 ff cc                dec    rsp
  57:   88 04 24                mov    BYTE PTR [rsp], al
  5a:   8a 04 24                mov    al, BYTE PTR [rsp]
  5d:   ff c4                   inc    esp
  5f:   a2 ef be ad de 00 00 00 00      movabs ds:secret[19], al
  68:   8a 04 24                mov    al, BYTE PTR [rsp]
  6b:   ff c4                   inc    esp
  6d:   a2 ef be ad de 00 00 00 00      movabs ds:secret[25], al
  76:   8a 04 24                mov    al, BYTE PTR [rsp]
  79:   ff c4                   inc    esp
  7b:   a2 ef be ad de 00 00 00 00      movabs ds:secret[28], al
  84:   8a 04 24                mov    al, BYTE PTR [rsp]
  87:   ff c4                   inc    esp
  89:   a2 ef be ad de 00 00 00 00      movabs ds:secret[1], al
  92:   8a 04 24                mov    al, BYTE PTR [rsp]
  95:   ff c4                   inc    esp
  97:   a2 ef be ad de 00 00 00 00      movabs ds:secret[16], al
  a0:   8a 04 24                mov    al, BYTE PTR [rsp]
  a3:   ff c4                   inc    esp
  a5:   a2 ef be ad de 00 00 00 00      movabs ds:secret[7], al
  ae:   a0 ef be ad de 00 00 00 00      movabs al, ds:secret[4]
  b7:   48 ff cc                dec    rsp
  ba:   88 04 24                mov    BYTE PTR [rsp], al
  bd:   a0 ef be ad de 00 00 00 00      movabs al, ds:secret[22]
  c6:   48 ff cc                dec    rsp
  c9:   88 04 24                mov    BYTE PTR [rsp], al
  cc:   a0 ef be ad de 00 00 00 00      movabs al, ds:secret[13]
  d5:   48 ff cc                dec    rsp
  d8:   88 04 24                mov    BYTE PTR [rsp], al
  db:   8a 04 24                mov    al, BYTE PTR [rsp]
  de:   ff c4                   inc    esp
  e0:   a2 ef be ad de 00 00 00 00      movabs ds:secret[4], al
  e9:   8a 04 24                mov    al, BYTE PTR [rsp]
  ec:   ff c4                   inc    esp
  ee:   a2 ef be ad de 00 00 00 00      movabs ds:secret[13], al
  f7:   8a 04 24                mov    al, BYTE PTR [rsp]
  fa:   ff c4                   inc    esp
  fc:   a2 ef be ad de 00 00 00 00      movabs ds:secret[22], al
 105:   a0 ef be ad de 00 00 00 00      movabs al, ds:secret[27]
 10e:   48 ff cc                dec    rsp
 111:   88 04 24                mov    BYTE PTR [rsp], al
 114:   a0 ef be ad de 00 00 00 00      movabs al, ds:secret[23]
 11d:   48 ff cc                dec    rsp
 120:   88 04 24                mov    BYTE PTR [rsp], al
 123:   a0 ef be ad de 00 00 00 00      movabs al, ds:secret[15]
 12c:   48 ff cc                dec    rsp
 12f:   88 04 24                mov    BYTE PTR [rsp], al
 132:   a0 ef be ad de 00 00 00 00      movabs al, ds:secret[0]
 13b:   48 ff cc                dec    rsp
 13e:   88 04 24                mov    BYTE PTR [rsp], al
 141:   a0 ef be ad de 00 00 00 00      movabs al, ds:secret[30]
 14a:   48 ff cc                dec    rsp
 14d:   88 04 24                mov    BYTE PTR [rsp], al
 150:   a0 ef be ad de 00 00 00 00      movabs al, ds:secret[29]
 159:   48 ff cc                dec    rsp
 15c:   88 04 24                mov    BYTE PTR [rsp], al
 15f:   8a 04 24                mov    al, BYTE PTR [rsp]
 162:   ff c4                   inc    esp
 164:   a2 ef be ad de 00 00 00 00      movabs ds:secret[27], al
 16d:   8a 04 24                mov    al, BYTE PTR [rsp]
 170:   ff c4                   inc    esp
 172:   a2 ef be ad de 00 00 00 00      movabs ds:secret[29], al
 17b:   8a 04 24                mov    al, BYTE PTR [rsp]
 17e:   ff c4                   inc    esp
 180:   a2 ef be ad de 00 00 00 00      movabs ds:secret[30], al
 189:   8a 04 24                mov    al, BYTE PTR [rsp]
 18c:   ff c4                   inc    esp
 18e:   a2 ef be ad de 00 00 00 00      movabs ds:secret[0], al
 197:   8a 04 24                mov    al, BYTE PTR [rsp]
 19a:   ff c4                   inc    esp
 19c:   a2 ef be ad de 00 00 00 00      movabs ds:secret[15], al
 1a5:   8a 04 24                mov    al, BYTE PTR [rsp]
 1a8:   ff c4                   inc    esp
 1aa:   a2 ef be ad de 00 00 00 00      movabs ds:secret[23], al
 1b3:   a0 ef be ad de 00 00 00 00      movabs al, ds:secret[24]
 1bc:   48 ff cc                dec    rsp
 1bf:   88 04 24                mov    BYTE PTR [rsp], al
 1c2:   a0 ef be ad de 00 00 00 00      movabs al, ds:secret[17]
 1cb:   48 ff cc                dec    rsp
 1ce:   88 04 24                mov    BYTE PTR [rsp], al
 1d1:   a0 ef be ad de 00 00 00 00      movabs al, ds:secret[3]
 1da:   48 ff cc                dec    rsp
 1dd:   88 04 24                mov    BYTE PTR [rsp], al
 1e0:   8a 04 24                mov    al, BYTE PTR [rsp]
 1e3:   ff c4                   inc    esp
 1e5:   a2 ef be ad de 00 00 00 00      movabs ds:secret[24], al
 1ee:   8a 04 24                mov    al, BYTE PTR [rsp]
 1f1:   ff c4                   inc    esp
 1f3:   a2 ef be ad de 00 00 00 00      movabs ds:secret[3], al
 1fc:   8a 04 24                mov    al, BYTE PTR [rsp]
 1ff:   ff c4                   inc    esp
 201:   a2 ef be ad de 00 00 00 00      movabs ds:secret[17], al
 20a:   a0 ef be ad de 00 00 00 00      movabs al, ds:secret[5]
 213:   48 ff cc                dec    rsp
 216:   88 04 24                mov    BYTE PTR [rsp], al
 219:   a0 ef be ad de 00 00 00 00      movabs al, ds:secret[20]
 222:   48 ff cc                dec    rsp
 225:   88 04 24                mov    BYTE PTR [rsp], al
 228:   a0 ef be ad de 00 00 00 00      movabs al, ds:secret[9]
 231:   48 ff cc                dec    rsp
 234:   88 04 24                mov    BYTE PTR [rsp], al
 237:   a0 ef be ad de 00 00 00 00      movabs al, ds:secret[12]
 240:   48 ff cc                dec    rsp
 243:   88 04 24                mov    BYTE PTR [rsp], al
 246:   a0 ef be ad de 00 00 00 00      movabs al, ds:secret[6]
 24f:   48 ff cc                dec    rsp
 252:   88 04 24                mov    BYTE PTR [rsp], al
 255:   a0 ef be ad de 00 00 00 00      movabs al, ds:secret[18]
 25e:   48 ff cc                dec    rsp
 261:   88 04 24                mov    BYTE PTR [rsp], al
 264:   8a 04 24                mov    al, BYTE PTR [rsp]
 267:   ff c4                   inc    esp
 269:   a2 ef be ad de 00 00 00 00      movabs ds:secret[5], al
 272:   8a 04 24                mov    al, BYTE PTR [rsp]
 275:   ff c4                   inc    esp
 277:   a2 ef be ad de 00 00 00 00      movabs ds:secret[18], al
 280:   8a 04 24                mov    al, BYTE PTR [rsp]
 283:   ff c4                   inc    esp
 285:   a2 ef be ad de 00 00 00 00      movabs ds:secret[6], al
 28e:   8a 04 24                mov    al, BYTE PTR [rsp]
 291:   ff c4                   inc    esp
 293:   a2 ef be ad de 00 00 00 00      movabs ds:secret[12], al
 29c:   8a 04 24                mov    al, BYTE PTR [rsp]
 29f:   ff c4                   inc    esp
 2a1:   a2 ef be ad de 00 00 00 00      movabs ds:secret[9], al
 2aa:   8a 04 24                mov    al, BYTE PTR [rsp]
 2ad:   ff c4                   inc    esp
 2af:   a2 ef be ad de 00 00 00 00      movabs ds:secret[20], al
 2b8:   a0 ef be ad de 00 00 00 00      movabs al, ds:secret[26]
 2c1:   48 ff cc                dec    rsp
 2c4:   88 04 24                mov    BYTE PTR [rsp], al
 2c7:   a0 ef be ad de 00 00 00 00      movabs al, ds:secret[21]
 2d0:   48 ff cc                dec    rsp
 2d3:   88 04 24                mov    BYTE PTR [rsp], al
 2d6:   a0 ef be ad de 00 00 00 00      movabs al, ds:secret[11]
 2df:   48 ff cc                dec    rsp
 2e2:   88 04 24                mov    BYTE PTR [rsp], al
 2e5:   a0 ef be ad de 00 00 00 00      movabs al, ds:secret[8]
 2ee:   48 ff cc                dec    rsp
 2f1:   88 04 24                mov    BYTE PTR [rsp], al
 2f4:   a0 ef be ad de 00 00 00 00      movabs al, ds:secret[14]
 2fd:   48 ff cc                dec    rsp
 300:   88 04 24                mov    BYTE PTR [rsp], al
 303:   a0 ef be ad de 00 00 00 00      movabs al, ds:secret[2]
 30c:   48 ff cc                dec    rsp
 30f:   88 04 24                mov    BYTE PTR [rsp], al
 312:   8a 04 24                mov    al, BYTE PTR [rsp]
 315:   ff c4                   inc    esp
 317:   a2 ef be ad de 00 00 00 00      movabs ds:secret[26], al
 320:   8a 04 24                mov    al, BYTE PTR [rsp]
 323:   ff c4                   inc    esp
 325:   a2 ef be ad de 00 00 00 00      movabs ds:secret[2], al
 32e:   8a 04 24                mov    al, BYTE PTR [rsp]
 331:   ff c4                   inc    esp
 333:   a2 ef be ad de 00 00 00 00      movabs ds:secret[14], al
 33c:   8a 04 24                mov    al, BYTE PTR [rsp]
 33f:   ff c4                   inc    esp
 341:   a2 ef be ad de 00 00 00 00      movabs ds:secret[8], al
 34a:   8a 04 24                mov    al, BYTE PTR [rsp]
 34d:   ff c4                   inc    esp
 34f:   a2 ef be ad de 00 00 00 00      movabs ds:secret[11], al
 358:   8a 04 24                mov    al, BYTE PTR [rsp]
 35b:   ff c4                   inc    esp
 35d:   a2 ef be ad de 00 00 00 00      movabs ds:secret[21], al
 366:   a0 ef be ad de 00 00 00 00      movabs al, ds:secret[22]
 36f:   48 ff cc                dec    rsp
 372:   88 04 24                mov    BYTE PTR [rsp], al
 375:   a0 ef be ad de 00 00 00 00      movabs al, ds:secret[23]
 37e:   48 ff cc                dec    rsp
 381:   88 04 24                mov    BYTE PTR [rsp], al
 384:   66 5b                   pop    bx
 386:   b9 08 00 00 00          mov    ecx, 0x8
 38b:   48 31 c0                xor    rax, rax
 38e:   86 f8                   xchg   al, bh
 390:   88 c2                   mov    dl, al
 392:   88 de                   mov    dh, bl
 394:   48 83 e0 01             and    rax, 0x1
 398:   48 83 e3 01             and    rbx, 0x1
 39c:   40 8a bc 43 8f 1b 60 00         mov    dil, BYTE PTR [rbx+rax*2+0x601b8f]
 3a4:   40 88 fe                mov    sil, dil
 3a7:   40 d0 ee                shr    sil, 1
 3aa:   88 d0                   mov    al, dl
 3ac:   24 fe                   and    al, 0xfe
 3ae:   40 08 f0                or     al, sil
 3b1:   40 80 e7 01             and    dil, 0x1
 3b5:   88 f3                   mov    bl, dh
 3b7:   80 e3 fe                and    bl, 0xfe
 3ba:   40 08 fb                or     bl, dil
 3bd:   d0 c0                   rol    al, 1
 3bf:   d0 c3                   rol    bl, 1
 3c1:   e2 cd                   loop   0x390
 3c3:   88 c7                   mov    bh, al
 3c5:   66 c1 c3 08             rol    bx, 0x8
 3c9:   66 53                   push   bx
 3cb:   8a 04 24                mov    al, BYTE PTR [rsp]
 3ce:   ff c4                   inc    esp
 3d0:   a2 ef be ad de 00 00 00 00      movabs ds:secret[23], al
 3d9:   8a 04 24                mov    al, BYTE PTR [rsp]
 3dc:   ff c4                   inc    esp
 3de:   a2 ef be ad de 00 00 00 00      movabs ds:secret[22], al
 3e7:   a0 ef be ad de 00 00 00 00      movabs al, ds:secret[30]
 3f0:   48 ff cc                dec    rsp
 3f3:   88 04 24                mov    BYTE PTR [rsp], al
 3f6:   a0 ef be ad de 00 00 00 00      movabs al, ds:secret[31]
 3ff:   48 ff cc                dec    rsp
 402:   88 04 24                mov    BYTE PTR [rsp], al
 405:   66 5b                   pop    bx
 407:   b9 08 00 00 00          mov    ecx, 0x8
 40c:   48 31 c0                xor    rax, rax
 40f:   86 f8                   xchg   al, bh
 411:   88 c2                   mov    dl, al
 413:   88 de                   mov    dh, bl
 415:   48 83 e0 01             and    rax, 0x1
 419:   48 83 e3 01             and    rbx, 0x1
 41d:   40 8a bc 43 8f 1b 60 00         mov    dil, BYTE PTR [rbx+rax*2+0x601b8f]
 425:   40 88 fe                mov    sil, dil
 428:   40 d0 ee                shr    sil, 1
 42b:   88 d0                   mov    al, dl
 42d:   24 fe                   and    al, 0xfe
 42f:   40 08 f0                or     al, sil
 432:   40 80 e7 01             and    dil, 0x1
 436:   88 f3                   mov    bl, dh
 438:   80 e3 fe                and    bl, 0xfe
 43b:   40 08 fb                or     bl, dil
 43e:   d0 c0                   rol    al, 1
 440:   d0 c3                   rol    bl, 1
 442:   e2 cd                   loop   0x411
 444:   88 c7                   mov    bh, al
 446:   66 c1 c3 08             rol    bx, 0x8
 44a:   66 53                   push   bx
 44c:   8a 04 24                mov    al, BYTE PTR [rsp]
 44f:   ff c4                   inc    esp
 451:   a2 ef be ad de 00 00 00 00      movabs ds:secret[31], al
 45a:   8a 04 24                mov    al, BYTE PTR [rsp]
 45d:   ff c4                   inc    esp
 45f:   a2 ef be ad de 00 00 00 00      movabs ds:secret[30], al
 468:   a0 ef be ad de 00 00 00 00      movabs al, ds:secret[18]
 471:   48 ff cc                dec    rsp
 474:   88 04 24                mov    BYTE PTR [rsp], al
 477:   a0 ef be ad de 00 00 00 00      movabs al, ds:secret[19]
 480:   48 ff cc                dec    rsp
 483:   88 04 24                mov    BYTE PTR [rsp], al
 486:   66 5b                   pop    bx
 488:   b9 08 00 00 00          mov    ecx, 0x8
 48d:   48 31 c0                xor    rax, rax
 490:   86 f8                   xchg   al, bh
 492:   88 c2                   mov    dl, al
 494:   88 de                   mov    dh, bl
 496:   48 83 e0 01             and    rax, 0x1
 49a:   48 83 e3 01             and    rbx, 0x1
 49e:   40 8a bc 43 8f 1b 60 00         mov    dil, BYTE PTR [rbx+rax*2+0x601b8f]
 4a6:   40 88 fe                mov    sil, dil
 4a9:   40 d0 ee                shr    sil, 1
 4ac:   88 d0                   mov    al, dl
 4ae:   24 fe                   and    al, 0xfe
 4b0:   40 08 f0                or     al, sil
 4b3:   40 80 e7 01             and    dil, 0x1
 4b7:   88 f3                   mov    bl, dh
 4b9:   80 e3 fe                and    bl, 0xfe
 4bc:   40 08 fb                or     bl, dil
 4bf:   d0 c0                   rol    al, 1
 4c1:   d0 c3                   rol    bl, 1
 4c3:   e2 cd                   loop   0x492
 4c5:   88 c7                   mov    bh, al
 4c7:   66 c1 c3 08             rol    bx, 0x8
 4cb:   66 53                   push   bx
 4cd:   8a 04 24                mov    al, BYTE PTR [rsp]
 4d0:   ff c4                   inc    esp
 4d2:   a2 ef be ad de 00 00 00 00      movabs ds:secret[19], al
 4db:   8a 04 24                mov    al, BYTE PTR [rsp]
 4de:   ff c4                   inc    esp
 4e0:   a2 ef be ad de 00 00 00 00      movabs ds:secret[18], al
 4e9:   a0 ef be ad de 00 00 00 00      movabs al, ds:secret[20]
 4f2:   48 ff cc                dec    rsp
 4f5:   88 04 24                mov    BYTE PTR [rsp], al
 4f8:   a0 ef be ad de 00 00 00 00      movabs al, ds:secret[21]
 501:   48 ff cc                dec    rsp
 504:   88 04 24                mov    BYTE PTR [rsp], al
 507:   66 5b                   pop    bx
 509:   b9 08 00 00 00          mov    ecx, 0x8
 50e:   48 31 c0                xor    rax, rax
 511:   86 f8                   xchg   al, bh
 513:   88 c2                   mov    dl, al
 515:   88 de                   mov    dh, bl
 517:   48 83 e0 01             and    rax, 0x1
 51b:   48 83 e3 01             and    rbx, 0x1
 51f:   40 8a bc 43 8f 1b 60 00         mov    dil, BYTE PTR [rbx+rax*2+0x601b8f]
 527:   40 88 fe                mov    sil, dil
 52a:   40 d0 ee                shr    sil, 1
 52d:   88 d0                   mov    al, dl
 52f:   24 fe                   and    al, 0xfe
 531:   40 08 f0                or     al, sil
 534:   40 80 e7 01             and    dil, 0x1
 538:   88 f3                   mov    bl, dh
 53a:   80 e3 fe                and    bl, 0xfe
 53d:   40 08 fb                or     bl, dil
 540:   d0 c0                   rol    al, 1
 542:   d0 c3                   rol    bl, 1
 544:   e2 cd                   loop   0x513
 546:   88 c7                   mov    bh, al
 548:   66 c1 c3 08             rol    bx, 0x8
 54c:   66 53                   push   bx
 54e:   8a 04 24                mov    al, BYTE PTR [rsp]
 551:   ff c4                   inc    esp
 553:   a2 ef be ad de 00 00 00 00      movabs ds:secret[21], al
 55c:   8a 04 24                mov    al, BYTE PTR [rsp]
 55f:   ff c4                   inc    esp
 561:   a2 ef be ad de 00 00 00 00      movabs ds:secret[20], al
 56a:   a0 ef be ad de 00 00 00 00      movabs al, ds:secret[16]
 573:   48 ff cc                dec    rsp
 576:   88 04 24                mov    BYTE PTR [rsp], al
 579:   a0 ef be ad de 00 00 00 00      movabs al, ds:secret[17]
 582:   48 ff cc                dec    rsp
 585:   88 04 24                mov    BYTE PTR [rsp], al
 588:   66 5b                   pop    bx
 58a:   b9 08 00 00 00          mov    ecx, 0x8
 58f:   48 31 c0                xor    rax, rax
 592:   86 f8                   xchg   al, bh
 594:   88 c2                   mov    dl, al
 596:   88 de                   mov    dh, bl
 598:   48 83 e0 01             and    rax, 0x1
 59c:   48 83 e3 01             and    rbx, 0x1
 5a0:   40 8a bc 43 8f 1b 60 00         mov    dil, BYTE PTR [rbx+rax*2+0x601b8f]
 5a8:   40 88 fe                mov    sil, dil
 5ab:   40 d0 ee                shr    sil, 1
 5ae:   88 d0                   mov    al, dl
 5b0:   24 fe                   and    al, 0xfe
 5b2:   40 08 f0                or     al, sil
 5b5:   40 80 e7 01             and    dil, 0x1
 5b9:   88 f3                   mov    bl, dh
 5bb:   80 e3 fe                and    bl, 0xfe
 5be:   40 08 fb                or     bl, dil
 5c1:   d0 c0                   rol    al, 1
 5c3:   d0 c3                   rol    bl, 1
 5c5:   e2 cd                   loop   0x594
 5c7:   88 c7                   mov    bh, al
 5c9:   66 c1 c3 08             rol    bx, 0x8
 5cd:   66 53                   push   bx
 5cf:   8a 04 24                mov    al, BYTE PTR [rsp]
 5d2:   ff c4                   inc    esp
 5d4:   a2 ef be ad de 00 00 00 00      movabs ds:secret[17], al
 5dd:   8a 04 24                mov    al, BYTE PTR [rsp]
 5e0:   ff c4                   inc    esp
 5e2:   a2 ef be ad de 00 00 00 00      movabs ds:secret[16], al
 5eb:   a0 ef be ad de 00 00 00 00      movabs al, ds:secret[6]
 5f4:   48 ff cc                dec    rsp
 5f7:   88 04 24                mov    BYTE PTR [rsp], al
 5fa:   a0 ef be ad de 00 00 00 00      movabs al, ds:secret[7]
 603:   48 ff cc                dec    rsp
 606:   88 04 24                mov    BYTE PTR [rsp], al
 609:   66 5b                   pop    bx
 60b:   b9 08 00 00 00          mov    ecx, 0x8
 610:   48 31 c0                xor    rax, rax
 613:   86 f8                   xchg   al, bh
 615:   88 c2                   mov    dl, al
 617:   88 de                   mov    dh, bl
 619:   48 83 e0 01             and    rax, 0x1
 61d:   48 83 e3 01             and    rbx, 0x1
 621:   40 8a bc 43 8f 1b 60 00         mov    dil, BYTE PTR [rbx+rax*2+0x601b8f]
 629:   40 88 fe                mov    sil, dil
 62c:   40 d0 ee                shr    sil, 1
 62f:   88 d0                   mov    al, dl
 631:   24 fe                   and    al, 0xfe
 633:   40 08 f0                or     al, sil
 636:   40 80 e7 01             and    dil, 0x1
 63a:   88 f3                   mov    bl, dh
 63c:   80 e3 fe                and    bl, 0xfe
 63f:   40 08 fb                or     bl, dil
 642:   d0 c0                   rol    al, 1
 644:   d0 c3                   rol    bl, 1
 646:   e2 cd                   loop   0x615
 648:   88 c7                   mov    bh, al
 64a:   66 c1 c3 08             rol    bx, 0x8
 64e:   66 53                   push   bx
 650:   8a 04 24                mov    al, BYTE PTR [rsp]
 653:   ff c4                   inc    esp
 655:   a2 ef be ad de 00 00 00 00      movabs ds:secret[7], al
 65e:   8a 04 24                mov    al, BYTE PTR [rsp]
 661:   ff c4                   inc    esp
 663:   a2 ef be ad de 00 00 00 00      movabs ds:secret[6], al
 66c:   a0 ef be ad de 00 00 00 00      movabs al, ds:secret[8]
 675:   48 ff cc                dec    rsp
 678:   88 04 24                mov    BYTE PTR [rsp], al
 67b:   a0 ef be ad de 00 00 00 00      movabs al, ds:secret[9]
 684:   48 ff cc                dec    rsp
 687:   88 04 24                mov    BYTE PTR [rsp], al
 68a:   66 5b                   pop    bx
 68c:   b9 08 00 00 00          mov    ecx, 0x8
 691:   48 31 c0                xor    rax, rax
 694:   86 f8                   xchg   al, bh
 696:   88 c2                   mov    dl, al
 698:   88 de                   mov    dh, bl
 69a:   48 83 e0 01             and    rax, 0x1
 69e:   48 83 e3 01             and    rbx, 0x1
 6a2:   40 8a bc 43 8f 1b 60 00         mov    dil, BYTE PTR [rbx+rax*2+0x601b8f]
 6aa:   40 88 fe                mov    sil, dil
 6ad:   40 d0 ee                shr    sil, 1
 6b0:   88 d0                   mov    al, dl
 6b2:   24 fe                   and    al, 0xfe
 6b4:   40 08 f0                or     al, sil
 6b7:   40 80 e7 01             and    dil, 0x1
 6bb:   88 f3                   mov    bl, dh
 6bd:   80 e3 fe                and    bl, 0xfe
 6c0:   40 08 fb                or     bl, dil
 6c3:   d0 c0                   rol    al, 1
 6c5:   d0 c3                   rol    bl, 1
 6c7:   e2 cd                   loop   0x696
 6c9:   88 c7                   mov    bh, al
 6cb:   66 c1 c3 08             rol    bx, 0x8
 6cf:   66 53                   push   bx
 6d1:   8a 04 24                mov    al, BYTE PTR [rsp]
 6d4:   ff c4                   inc    esp
 6d6:   a2 ef be ad de 00 00 00 00      movabs ds:secret[9], al
 6df:   8a 04 24                mov    al, BYTE PTR [rsp]
 6e2:   ff c4                   inc    esp
 6e4:   a2 ef be ad de 00 00 00 00      movabs ds:secret[8], al
 6ed:   a0 ef be ad de 00 00 00 00      movabs al, ds:secret[12]
 6f6:   48 ff cc                dec    rsp
 6f9:   88 04 24                mov    BYTE PTR [rsp], al
 6fc:   a0 ef be ad de 00 00 00 00      movabs al, ds:secret[13]
 705:   48 ff cc                dec    rsp
 708:   88 04 24                mov    BYTE PTR [rsp], al
 70b:   66 5b                   pop    bx
 70d:   b9 08 00 00 00          mov    ecx, 0x8
 712:   48 31 c0                xor    rax, rax
 715:   86 f8                   xchg   al, bh
 717:   88 c2                   mov    dl, al
 719:   88 de                   mov    dh, bl
 71b:   48 83 e0 01             and    rax, 0x1
 71f:   48 83 e3 01             and    rbx, 0x1
 723:   40 8a bc 43 8f 1b 60 00         mov    dil, BYTE PTR [rbx+rax*2+0x601b8f]
 72b:   40 88 fe                mov    sil, dil
 72e:   40 d0 ee                shr    sil, 1
 731:   88 d0                   mov    al, dl
 733:   24 fe                   and    al, 0xfe
 735:   40 08 f0                or     al, sil
 738:   40 80 e7 01             and    dil, 0x1
 73c:   88 f3                   mov    bl, dh
 73e:   80 e3 fe                and    bl, 0xfe
 741:   40 08 fb                or     bl, dil
 744:   d0 c0                   rol    al, 1
 746:   d0 c3                   rol    bl, 1
 748:   e2 cd                   loop   0x717
 74a:   88 c7                   mov    bh, al
 74c:   66 c1 c3 08             rol    bx, 0x8
 750:   66 53                   push   bx
 752:   8a 04 24                mov    al, BYTE PTR [rsp]
 755:   ff c4                   inc    esp
 757:   a2 ef be ad de 00 00 00 00      movabs ds:secret[13], al
 760:   8a 04 24                mov    al, BYTE PTR [rsp]
 763:   ff c4                   inc    esp
 765:   a2 ef be ad de 00 00 00 00      movabs ds:secret[12], al
 76e:   a0 ef be ad de 00 00 00 00      movabs al, ds:secret[26]
 777:   48 ff cc                dec    rsp
 77a:   88 04 24                mov    BYTE PTR [rsp], al
 77d:   a0 ef be ad de 00 00 00 00      movabs al, ds:secret[27]
 786:   48 ff cc                dec    rsp
 789:   88 04 24                mov    BYTE PTR [rsp], al
 78c:   66 5b                   pop    bx
 78e:   b9 08 00 00 00          mov    ecx, 0x8
 793:   48 31 c0                xor    rax, rax
 796:   86 f8                   xchg   al, bh
 798:   88 c2                   mov    dl, al
 79a:   88 de                   mov    dh, bl
 79c:   48 83 e0 01             and    rax, 0x1
 7a0:   48 83 e3 01             and    rbx, 0x1
 7a4:   40 8a bc 43 8f 1b 60 00         mov    dil, BYTE PTR [rbx+rax*2+0x601b8f]
 7ac:   40 88 fe                mov    sil, dil
 7af:   40 d0 ee                shr    sil, 1
 7b2:   88 d0                   mov    al, dl
 7b4:   24 fe                   and    al, 0xfe
 7b6:   40 08 f0                or     al, sil
 7b9:   40 80 e7 01             and    dil, 0x1
 7bd:   88 f3                   mov    bl, dh
 7bf:   80 e3 fe                and    bl, 0xfe
 7c2:   40 08 fb                or     bl, dil
 7c5:   d0 c0                   rol    al, 1
 7c7:   d0 c3                   rol    bl, 1
 7c9:   e2 cd                   loop   0x798
 7cb:   88 c7                   mov    bh, al
 7cd:   66 c1 c3 08             rol    bx, 0x8
 7d1:   66 53                   push   bx
 7d3:   8a 04 24                mov    al, BYTE PTR [rsp]
 7d6:   ff c4                   inc    esp
 7d8:   a2 ef be ad de 00 00 00 00      movabs ds:secret[27], al
 7e1:   8a 04 24                mov    al, BYTE PTR [rsp]
 7e4:   ff c4                   inc    esp
 7e6:   a2 ef be ad de 00 00 00 00      movabs ds:secret[26], al
 7ef:   a0 ef be ad de 00 00 00 00      movabs al, ds:secret[0]
 7f8:   48 ff cc                dec    rsp
 7fb:   88 04 24                mov    BYTE PTR [rsp], al
 7fe:   a0 ef be ad de 00 00 00 00      movabs al, ds:secret[1]
 807:   48 ff cc                dec    rsp
 80a:   88 04 24                mov    BYTE PTR [rsp], al
 80d:   66 5b                   pop    bx
 80f:   b9 08 00 00 00          mov    ecx, 0x8
 814:   48 31 c0                xor    rax, rax
 817:   86 f8                   xchg   al, bh
 819:   88 c2                   mov    dl, al
 81b:   88 de                   mov    dh, bl
 81d:   48 83 e0 01             and    rax, 0x1
 821:   48 83 e3 01             and    rbx, 0x1
 825:   40 8a bc 43 8f 1b 60 00         mov    dil, BYTE PTR [rbx+rax*2+0x601b8f]
 82d:   40 88 fe                mov    sil, dil
 830:   40 d0 ee                shr    sil, 1
 833:   88 d0                   mov    al, dl
 835:   24 fe                   and    al, 0xfe
 837:   40 08 f0                or     al, sil
 83a:   40 80 e7 01             and    dil, 0x1
 83e:   88 f3                   mov    bl, dh
 840:   80 e3 fe                and    bl, 0xfe
 843:   40 08 fb                or     bl, dil
 846:   d0 c0                   rol    al, 1
 848:   d0 c3                   rol    bl, 1
 84a:   e2 cd                   loop   0x819
 84c:   88 c7                   mov    bh, al
 84e:   66 c1 c3 08             rol    bx, 0x8
 852:   66 53                   push   bx
 854:   8a 04 24                mov    al, BYTE PTR [rsp]
 857:   ff c4                   inc    esp
 859:   a2 ef be ad de 00 00 00 00      movabs ds:secret[1], al
 862:   8a 04 24                mov    al, BYTE PTR [rsp]
 865:   ff c4                   inc    esp
 867:   a2 ef be ad de 00 00 00 00      movabs ds:secret[0], al
 870:   a0 ef be ad de 00 00 00 00      movabs al, ds:secret[24]
 879:   48 ff cc                dec    rsp
 87c:   88 04 24                mov    BYTE PTR [rsp], al
 87f:   a0 ef be ad de 00 00 00 00      movabs al, ds:secret[25]
 888:   48 ff cc                dec    rsp
 88b:   88 04 24                mov    BYTE PTR [rsp], al
 88e:   66 5b                   pop    bx
 890:   b9 08 00 00 00          mov    ecx, 0x8
 895:   48 31 c0                xor    rax, rax
 898:   86 f8                   xchg   al, bh
 89a:   88 c2                   mov    dl, al
 89c:   88 de                   mov    dh, bl
 89e:   48 83 e0 01             and    rax, 0x1
 8a2:   48 83 e3 01             and    rbx, 0x1
 8a6:   40 8a bc 43 8f 1b 60 00         mov    dil, BYTE PTR [rbx+rax*2+0x601b8f]
 8ae:   40 88 fe                mov    sil, dil
 8b1:   40 d0 ee                shr    sil, 1
 8b4:   88 d0                   mov    al, dl
 8b6:   24 fe                   and    al, 0xfe
 8b8:   40 08 f0                or     al, sil
 8bb:   40 80 e7 01             and    dil, 0x1
 8bf:   88 f3                   mov    bl, dh
 8c1:   80 e3 fe                and    bl, 0xfe
 8c4:   40 08 fb                or     bl, dil
 8c7:   d0 c0                   rol    al, 1
 8c9:   d0 c3                   rol    bl, 1
 8cb:   e2 cd                   loop   0x89a
 8cd:   88 c7                   mov    bh, al
 8cf:   66 c1 c3 08             rol    bx, 0x8
 8d3:   66 53                   push   bx
 8d5:   8a 04 24                mov    al, BYTE PTR [rsp]
 8d8:   ff c4                   inc    esp
 8da:   a2 ef be ad de 00 00 00 00      movabs ds:secret[25], al
 8e3:   8a 04 24                mov    al, BYTE PTR [rsp]
 8e6:   ff c4                   inc    esp
 8e8:   a2 ef be ad de 00 00 00 00      movabs ds:secret[24], al
 8f1:   a0 ef be ad de 00 00 00 00      movabs al, ds:secret[4]
 8fa:   48 ff cc                dec    rsp
 8fd:   88 04 24                mov    BYTE PTR [rsp], al
 900:   a0 ef be ad de 00 00 00 00      movabs al, ds:secret[5]
 909:   48 ff cc                dec    rsp
 90c:   88 04 24                mov    BYTE PTR [rsp], al
 90f:   66 5b                   pop    bx
 911:   b9 08 00 00 00          mov    ecx, 0x8
 916:   48 31 c0                xor    rax, rax
 919:   86 f8                   xchg   al, bh
 91b:   88 c2                   mov    dl, al
 91d:   88 de                   mov    dh, bl
 91f:   48 83 e0 01             and    rax, 0x1
 923:   48 83 e3 01             and    rbx, 0x1
 927:   40 8a bc 43 8f 1b 60 00         mov    dil, BYTE PTR [rbx+rax*2+0x601b8f]
 92f:   40 88 fe                mov    sil, dil
 932:   40 d0 ee                shr    sil, 1
 935:   88 d0                   mov    al, dl
 937:   24 fe                   and    al, 0xfe
 939:   40 08 f0                or     al, sil
 93c:   40 80 e7 01             and    dil, 0x1
 940:   88 f3                   mov    bl, dh
 942:   80 e3 fe                and    bl, 0xfe
 945:   40 08 fb                or     bl, dil
 948:   d0 c0                   rol    al, 1
 94a:   d0 c3                   rol    bl, 1
 94c:   e2 cd                   loop   0x91b
 94e:   88 c7                   mov    bh, al
 950:   66 c1 c3 08             rol    bx, 0x8
 954:   66 53                   push   bx
 956:   8a 04 24                mov    al, BYTE PTR [rsp]
 959:   ff c4                   inc    esp
 95b:   a2 ef be ad de 00 00 00 00      movabs ds:secret[5], al
 964:   8a 04 24                mov    al, BYTE PTR [rsp]
 967:   ff c4                   inc    esp
 969:   a2 ef be ad de 00 00 00 00      movabs ds:secret[4], al
 972:   a0 ef be ad de 00 00 00 00      movabs al, ds:secret[2]
 97b:   48 ff cc                dec    rsp
 97e:   88 04 24                mov    BYTE PTR [rsp], al
 981:   a0 ef be ad de 00 00 00 00      movabs al, ds:secret[3]
 98a:   48 ff cc                dec    rsp
 98d:   88 04 24                mov    BYTE PTR [rsp], al
 990:   66 5b                   pop    bx
 992:   b9 08 00 00 00          mov    ecx, 0x8
 997:   48 31 c0                xor    rax, rax
 99a:   86 f8                   xchg   al, bh
 99c:   88 c2                   mov    dl, al
 99e:   88 de                   mov    dh, bl
 9a0:   48 83 e0 01             and    rax, 0x1
 9a4:   48 83 e3 01             and    rbx, 0x1
 9a8:   40 8a bc 43 8f 1b 60 00         mov    dil, BYTE PTR [rbx+rax*2+0x601b8f]
 9b0:   40 88 fe                mov    sil, dil
 9b3:   40 d0 ee                shr    sil, 1
 9b6:   88 d0                   mov    al, dl
 9b8:   24 fe                   and    al, 0xfe
 9ba:   40 08 f0                or     al, sil
 9bd:   40 80 e7 01             and    dil, 0x1
 9c1:   88 f3                   mov    bl, dh
 9c3:   80 e3 fe                and    bl, 0xfe
 9c6:   40 08 fb                or     bl, dil
 9c9:   d0 c0                   rol    al, 1
 9cb:   d0 c3                   rol    bl, 1
 9cd:   e2 cd                   loop   0x99c
 9cf:   88 c7                   mov    bh, al
 9d1:   66 c1 c3 08             rol    bx, 0x8
 9d5:   66 53                   push   bx
 9d7:   8a 04 24                mov    al, BYTE PTR [rsp]
 9da:   ff c4                   inc    esp
 9dc:   a2 ef be ad de 00 00 00 00      movabs ds:secret[3], al
 9e5:   8a 04 24                mov    al, BYTE PTR [rsp]
 9e8:   ff c4                   inc    esp
 9ea:   a2 ef be ad de 00 00 00 00      movabs ds:secret[2], al
 9f3:   a0 ef be ad de 00 00 00 00      movabs al, ds:secret[28]
 9fc:   48 ff cc                dec    rsp
 9ff:   88 04 24                mov    BYTE PTR [rsp], al
 a02:   a0 ef be ad de 00 00 00 00      movabs al, ds:secret[29]
 a0b:   48 ff cc                dec    rsp
 a0e:   88 04 24                mov    BYTE PTR [rsp], al
 a11:   66 5b                   pop    bx
 a13:   b9 08 00 00 00          mov    ecx, 0x8
 a18:   48 31 c0                xor    rax, rax
 a1b:   86 f8                   xchg   al, bh
 a1d:   88 c2                   mov    dl, al
 a1f:   88 de                   mov    dh, bl
 a21:   48 83 e0 01             and    rax, 0x1
 a25:   48 83 e3 01             and    rbx, 0x1
 a29:   40 8a bc 43 8f 1b 60 00         mov    dil, BYTE PTR [rbx+rax*2+0x601b8f]
 a31:   40 88 fe                mov    sil, dil
 a34:   40 d0 ee                shr    sil, 1
 a37:   88 d0                   mov    al, dl
 a39:   24 fe                   and    al, 0xfe
 a3b:   40 08 f0                or     al, sil
 a3e:   40 80 e7 01             and    dil, 0x1
 a42:   88 f3                   mov    bl, dh
 a44:   80 e3 fe                and    bl, 0xfe
 a47:   40 08 fb                or     bl, dil
 a4a:   d0 c0                   rol    al, 1
 a4c:   d0 c3                   rol    bl, 1
 a4e:   e2 cd                   loop   0xa1d
 a50:   88 c7                   mov    bh, al
 a52:   66 c1 c3 08             rol    bx, 0x8
 a56:   66 53                   push   bx
 a58:   8a 04 24                mov    al, BYTE PTR [rsp]
 a5b:   ff c4                   inc    esp
 a5d:   a2 ef be ad de 00 00 00 00      movabs ds:secret[29], al
 a66:   8a 04 24                mov    al, BYTE PTR [rsp]
 a69:   ff c4                   inc    esp
 a6b:   a2 ef be ad de 00 00 00 00      movabs ds:secret[28], al
 a74:   a0 ef be ad de 00 00 00 00      movabs al, ds:secret[14]
 a7d:   48 ff cc                dec    rsp
 a80:   88 04 24                mov    BYTE PTR [rsp], al
 a83:   a0 ef be ad de 00 00 00 00      movabs al, ds:secret[15]
 a8c:   48 ff cc                dec    rsp
 a8f:   88 04 24                mov    BYTE PTR [rsp], al
 a92:   66 5b                   pop    bx
 a94:   b9 08 00 00 00          mov    ecx, 0x8
 a99:   48 31 c0                xor    rax, rax
 a9c:   86 f8                   xchg   al, bh
 a9e:   88 c2                   mov    dl, al
 aa0:   88 de                   mov    dh, bl
 aa2:   48 83 e0 01             and    rax, 0x1
 aa6:   48 83 e3 01             and    rbx, 0x1
 aaa:   40 8a bc 43 8f 1b 60 00         mov    dil, BYTE PTR [rbx+rax*2+0x601b8f]
 ab2:   40 88 fe                mov    sil, dil
 ab5:   40 d0 ee                shr    sil, 1
 ab8:   88 d0                   mov    al, dl
 aba:   24 fe                   and    al, 0xfe
 abc:   40 08 f0                or     al, sil
 abf:   40 80 e7 01             and    dil, 0x1
 ac3:   88 f3                   mov    bl, dh
 ac5:   80 e3 fe                and    bl, 0xfe
 ac8:   40 08 fb                or     bl, dil
 acb:   d0 c0                   rol    al, 1
 acd:   d0 c3                   rol    bl, 1
 acf:   e2 cd                   loop   0xa9e
 ad1:   88 c7                   mov    bh, al
 ad3:   66 c1 c3 08             rol    bx, 0x8
 ad7:   66 53                   push   bx
 ad9:   8a 04 24                mov    al, BYTE PTR [rsp]
 adc:   ff c4                   inc    esp
 ade:   a2 ef be ad de 00 00 00 00      movabs ds:secret[15], al
 ae7:   8a 04 24                mov    al, BYTE PTR [rsp]
 aea:   ff c4                   inc    esp
 aec:   a2 ef be ad de 00 00 00 00      movabs ds:secret[14], al
 af5:   a0 ef be ad de 00 00 00 00      movabs al, ds:secret[10]
 afe:   48 ff cc                dec    rsp
 b01:   88 04 24                mov    BYTE PTR [rsp], al
 b04:   a0 ef be ad de 00 00 00 00      movabs al, ds:secret[11]
 b0d:   48 ff cc                dec    rsp
 b10:   88 04 24                mov    BYTE PTR [rsp], al
 b13:   66 5b                   pop    bx
 b15:   b9 08 00 00 00          mov    ecx, 0x8
 b1a:   48 31 c0                xor    rax, rax
 b1d:   86 f8                   xchg   al, bh
 b1f:   88 c2                   mov    dl, al
 b21:   88 de                   mov    dh, bl
 b23:   48 83 e0 01             and    rax, 0x1
 b27:   48 83 e3 01             and    rbx, 0x1
 b2b:   40 8a bc 43 8f 1b 60 00         mov    dil, BYTE PTR [rbx+rax*2+0x601b8f]
 b33:   40 88 fe                mov    sil, dil
 b36:   40 d0 ee                shr    sil, 1
 b39:   88 d0                   mov    al, dl
 b3b:   24 fe                   and    al, 0xfe
 b3d:   40 08 f0                or     al, sil
 b40:   40 80 e7 01             and    dil, 0x1
 b44:   88 f3                   mov    bl, dh
 b46:   80 e3 fe                and    bl, 0xfe
 b49:   40 08 fb                or     bl, dil
 b4c:   d0 c0                   rol    al, 1
 b4e:   d0 c3                   rol    bl, 1
 b50:   e2 cd                   loop   0xb1f
 b52:   88 c7                   mov    bh, al
 b54:   66 c1 c3 08             rol    bx, 0x8
 b58:   66 53                   push   bx
 b5a:   8a 04 24                mov    al, BYTE PTR [rsp]
 b5d:   ff c4                   inc    esp
 b5f:   a2 ef be ad de 00 00 00 00      movabs ds:secret[11], al
 b68:   8a 04 24                mov    al, BYTE PTR [rsp]
 b6b:   ff c4                   inc    esp
 b6d:   a2 ef be ad de 00 00 00 00      movabs ds:secret[10], al


[+] JKFEH@IMCGANLDOB<9;5>728:=463?1-2-N-6-<-8-J-D-@-4->-L-:-F-B-HJ&-J-K0&-0-1F&-F-G6&-6-72&-2-3L&-L-M@&-@-AH&-H-I4&-4-5<&-<-=N&-N-O>&->-?D&-D-EB&-B-C8&-8-9:&-:-;!
   0:   a0 ef be ad de 00 00 00 00      movabs al, ds:secret[26]
   9:   48 ff cc                dec    rsp
   c:   88 04 24                mov    BYTE PTR [rsp], al
   f:   a0 ef be ad de 00 00 00 00      movabs al, ds:secret[27]
  18:   48 ff cc                dec    rsp
  1b:   88 04 24                mov    BYTE PTR [rsp], al
  1e:   a0 ef be ad de 00 00 00 00      movabs al, ds:secret[22]
  27:   48 ff cc                dec    rsp
  2a:   88 04 24                mov    BYTE PTR [rsp], al
  2d:   a0 ef be ad de 00 00 00 00      movabs al, ds:secret[21]
  36:   48 ff cc                dec    rsp
  39:   88 04 24                mov    BYTE PTR [rsp], al
  3c:   a0 ef be ad de 00 00 00 00      movabs al, ds:secret[24]
  45:   48 ff cc                dec    rsp
  48:   88 04 24                mov    BYTE PTR [rsp], al
  4b:   a0 ef be ad de 00 00 00 00      movabs al, ds:secret[16]
  54:   48 ff cc                dec    rsp
  57:   88 04 24                mov    BYTE PTR [rsp], al
  5a:   a0 ef be ad de 00 00 00 00      movabs al, ds:secret[25]
  63:   48 ff cc                dec    rsp
  66:   88 04 24                mov    BYTE PTR [rsp], al
  69:   a0 ef be ad de 00 00 00 00      movabs al, ds:secret[29]
  72:   48 ff cc                dec    rsp
  75:   88 04 24                mov    BYTE PTR [rsp], al
  78:   a0 ef be ad de 00 00 00 00      movabs al, ds:secret[19]
  81:   48 ff cc                dec    rsp
  84:   88 04 24                mov    BYTE PTR [rsp], al
  87:   a0 ef be ad de 00 00 00 00      movabs al, ds:secret[23]
  90:   48 ff cc                dec    rsp
  93:   88 04 24                mov    BYTE PTR [rsp], al
  96:   a0 ef be ad de 00 00 00 00      movabs al, ds:secret[17]
  9f:   48 ff cc                dec    rsp
  a2:   88 04 24                mov    BYTE PTR [rsp], al
  a5:   a0 ef be ad de 00 00 00 00      movabs al, ds:secret[30]
  ae:   48 ff cc                dec    rsp
  b1:   88 04 24                mov    BYTE PTR [rsp], al
  b4:   a0 ef be ad de 00 00 00 00      movabs al, ds:secret[28]
  bd:   48 ff cc                dec    rsp
  c0:   88 04 24                mov    BYTE PTR [rsp], al
  c3:   a0 ef be ad de 00 00 00 00      movabs al, ds:secret[20]
  cc:   48 ff cc                dec    rsp
  cf:   88 04 24                mov    BYTE PTR [rsp], al
  d2:   a0 ef be ad de 00 00 00 00      movabs al, ds:secret[31]
  db:   48 ff cc                dec    rsp
  de:   88 04 24                mov    BYTE PTR [rsp], al
  e1:   a0 ef be ad de 00 00 00 00      movabs al, ds:secret[18]
  ea:   48 ff cc                dec    rsp
  ed:   88 04 24                mov    BYTE PTR [rsp], al
  f0:   a0 ef be ad de 00 00 00 00      movabs al, ds:secret[12]
  f9:   48 ff cc                dec    rsp
  fc:   88 04 24                mov    BYTE PTR [rsp], al
  ff:   a0 ef be ad de 00 00 00 00      movabs al, ds:secret[9]
 108:   48 ff cc                dec    rsp
 10b:   88 04 24                mov    BYTE PTR [rsp], al
 10e:   a0 ef be ad de 00 00 00 00      movabs al, ds:secret[11]
 117:   48 ff cc                dec    rsp
 11a:   88 04 24                mov    BYTE PTR [rsp], al
 11d:   a0 ef be ad de 00 00 00 00      movabs al, ds:secret[5]
 126:   48 ff cc                dec    rsp
 129:   88 04 24                mov    BYTE PTR [rsp], al
 12c:   a0 ef be ad de 00 00 00 00      movabs al, ds:secret[14]
 135:   48 ff cc                dec    rsp
 138:   88 04 24                mov    BYTE PTR [rsp], al
 13b:   a0 ef be ad de 00 00 00 00      movabs al, ds:secret[7]
 144:   48 ff cc                dec    rsp
 147:   88 04 24                mov    BYTE PTR [rsp], al
 14a:   a0 ef be ad de 00 00 00 00      movabs al, ds:secret[2]
 153:   48 ff cc                dec    rsp
 156:   88 04 24                mov    BYTE PTR [rsp], al
 159:   a0 ef be ad de 00 00 00 00      movabs al, ds:secret[8]
 162:   48 ff cc                dec    rsp
 165:   88 04 24                mov    BYTE PTR [rsp], al
 168:   a0 ef be ad de 00 00 00 00      movabs al, ds:secret[10]
 171:   48 ff cc                dec    rsp
 174:   88 04 24                mov    BYTE PTR [rsp], al
 177:   a0 ef be ad de 00 00 00 00      movabs al, ds:secret[13]
 180:   48 ff cc                dec    rsp
 183:   88 04 24                mov    BYTE PTR [rsp], al
 186:   a0 ef be ad de 00 00 00 00      movabs al, ds:secret[4]
 18f:   48 ff cc                dec    rsp
 192:   88 04 24                mov    BYTE PTR [rsp], al
 195:   a0 ef be ad de 00 00 00 00      movabs al, ds:secret[6]
 19e:   48 ff cc                dec    rsp
 1a1:   88 04 24                mov    BYTE PTR [rsp], al
 1a4:   a0 ef be ad de 00 00 00 00      movabs al, ds:secret[3]
 1ad:   48 ff cc                dec    rsp
 1b0:   88 04 24                mov    BYTE PTR [rsp], al
 1b3:   a0 ef be ad de 00 00 00 00      movabs al, ds:secret[15]
 1bc:   48 ff cc                dec    rsp
 1bf:   88 04 24                mov    BYTE PTR [rsp], al
 1c2:   a0 ef be ad de 00 00 00 00      movabs al, ds:secret[1]
 1cb:   48 ff cc                dec    rsp
 1ce:   88 04 24                mov    BYTE PTR [rsp], al
 1d1:   8a 04 24                mov    al, BYTE PTR [rsp]
 1d4:   ff c4                   inc    esp
 1d6:   a2 ef be ad de 00 00 00 00      movabs ds:secret[2], al
 1df:   8a 04 24                mov    al, BYTE PTR [rsp]
 1e2:   ff c4                   inc    esp
 1e4:   a2 ef be ad de 00 00 00 00      movabs ds:secret[30], al
 1ed:   8a 04 24                mov    al, BYTE PTR [rsp]
 1f0:   ff c4                   inc    esp
 1f2:   a2 ef be ad de 00 00 00 00      movabs ds:secret[6], al
 1fb:   8a 04 24                mov    al, BYTE PTR [rsp]
 1fe:   ff c4                   inc    esp
 200:   a2 ef be ad de 00 00 00 00      movabs ds:secret[12], al
 209:   8a 04 24                mov    al, BYTE PTR [rsp]
 20c:   ff c4                   inc    esp
 20e:   a2 ef be ad de 00 00 00 00      movabs ds:secret[8], al
 217:   8a 04 24                mov    al, BYTE PTR [rsp]
 21a:   ff c4                   inc    esp
 21c:   a2 ef be ad de 00 00 00 00      movabs ds:secret[26], al
 225:   8a 04 24                mov    al, BYTE PTR [rsp]
 228:   ff c4                   inc    esp
 22a:   a2 ef be ad de 00 00 00 00      movabs ds:secret[20], al
 233:   8a 04 24                mov    al, BYTE PTR [rsp]
 236:   ff c4                   inc    esp
 238:   a2 ef be ad de 00 00 00 00      movabs ds:secret[16], al
 241:   8a 04 24                mov    al, BYTE PTR [rsp]
 244:   ff c4                   inc    esp
 246:   a2 ef be ad de 00 00 00 00      movabs ds:secret[4], al
 24f:   8a 04 24                mov    al, BYTE PTR [rsp]
 252:   ff c4                   inc    esp
 254:   a2 ef be ad de 00 00 00 00      movabs ds:secret[14], al
 25d:   8a 04 24                mov    al, BYTE PTR [rsp]
 260:   ff c4                   inc    esp
 262:   a2 ef be ad de 00 00 00 00      movabs ds:secret[28], al
 26b:   8a 04 24                mov    al, BYTE PTR [rsp]
 26e:   ff c4                   inc    esp
 270:   a2 ef be ad de 00 00 00 00      movabs ds:secret[10], al
 279:   8a 04 24                mov    al, BYTE PTR [rsp]
 27c:   ff c4                   inc    esp
 27e:   a2 ef be ad de 00 00 00 00      movabs ds:secret[22], al
 287:   8a 04 24                mov    al, BYTE PTR [rsp]
 28a:   ff c4                   inc    esp
 28c:   a2 ef be ad de 00 00 00 00      movabs ds:secret[18], al
 295:   8a 04 24                mov    al, BYTE PTR [rsp]
 298:   ff c4                   inc    esp
 29a:   a2 ef be ad de 00 00 00 00      movabs ds:secret[24], al
 2a3:   a0 ef be ad de 00 00 00 00      movabs al, ds:secret[26]
 2ac:   48 ff cc                dec    rsp
 2af:   88 04 24                mov    BYTE PTR [rsp], al
 2b2:   66 5b                   pop    bx
 2b4:   b9 08 00 00 00          mov    ecx, 0x8
 2b9:   48 31 c0                xor    rax, rax
 2bc:   86 f8                   xchg   al, bh
 2be:   88 c2                   mov    dl, al
 2c0:   88 de                   mov    dh, bl
 2c2:   48 83 e0 01             and    rax, 0x1
 2c6:   48 83 e3 01             and    rbx, 0x1
 2ca:   40 8a bc 43 8f 1b 60 00         mov    dil, BYTE PTR [rbx+rax*2+0x601b8f]
 2d2:   40 88 fe                mov    sil, dil
 2d5:   40 d0 ee                shr    sil, 1
 2d8:   88 d0                   mov    al, dl
 2da:   24 fe                   and    al, 0xfe
 2dc:   40 08 f0                or     al, sil
 2df:   40 80 e7 01             and    dil, 0x1
 2e3:   88 f3                   mov    bl, dh
 2e5:   80 e3 fe                and    bl, 0xfe
 2e8:   40 08 fb                or     bl, dil
 2eb:   d0 c0                   rol    al, 1
 2ed:   d0 c3                   rol    bl, 1
 2ef:   e2 cd                   loop   0x2be
 2f1:   88 c7                   mov    bh, al
 2f3:   66 c1 c3 08             rol    bx, 0x8
 2f7:   66 53                   push   bx
 2f9:   8a 04 24                mov    al, BYTE PTR [rsp]
 2fc:   ff c4                   inc    esp
 2fe:   a2 ef be ad de 00 00 00 00      movabs ds:secret[26], al
 307:   8a 04 24                mov    al, BYTE PTR [rsp]
 30a:   ff c4                   inc    esp
 30c:   a2 ef be ad de 00 00 00 00      movabs ds:secret[27], al
 315:   a0 ef be ad de 00 00 00 00      movabs al, ds:secret[0]
 31e:   48 ff cc                dec    rsp
 321:   88 04 24                mov    BYTE PTR [rsp], al
 324:   66 5b                   pop    bx
 326:   b9 08 00 00 00          mov    ecx, 0x8
 32b:   48 31 c0                xor    rax, rax
 32e:   86 f8                   xchg   al, bh
 330:   88 c2                   mov    dl, al
 332:   88 de                   mov    dh, bl
 334:   48 83 e0 01             and    rax, 0x1
 338:   48 83 e3 01             and    rbx, 0x1
 33c:   40 8a bc 43 8f 1b 60 00         mov    dil, BYTE PTR [rbx+rax*2+0x601b8f]
 344:   40 88 fe                mov    sil, dil
 347:   40 d0 ee                shr    sil, 1
 34a:   88 d0                   mov    al, dl
 34c:   24 fe                   and    al, 0xfe
 34e:   40 08 f0                or     al, sil
 351:   40 80 e7 01             and    dil, 0x1
 355:   88 f3                   mov    bl, dh
 357:   80 e3 fe                and    bl, 0xfe
 35a:   40 08 fb                or     bl, dil
 35d:   d0 c0                   rol    al, 1
 35f:   d0 c3                   rol    bl, 1
 361:   e2 cd                   loop   0x330
 363:   88 c7                   mov    bh, al
 365:   66 c1 c3 08             rol    bx, 0x8
 369:   66 53                   push   bx
 36b:   8a 04 24                mov    al, BYTE PTR [rsp]
 36e:   ff c4                   inc    esp
 370:   a2 ef be ad de 00 00 00 00      movabs ds:secret[0], al
 379:   8a 04 24                mov    al, BYTE PTR [rsp]
 37c:   ff c4                   inc    esp
 37e:   a2 ef be ad de 00 00 00 00      movabs ds:secret[1], al
 387:   a0 ef be ad de 00 00 00 00      movabs al, ds:secret[22]
 390:   48 ff cc                dec    rsp
 393:   88 04 24                mov    BYTE PTR [rsp], al
 396:   66 5b                   pop    bx
 398:   b9 08 00 00 00          mov    ecx, 0x8
 39d:   48 31 c0                xor    rax, rax
 3a0:   86 f8                   xchg   al, bh
 3a2:   88 c2                   mov    dl, al
 3a4:   88 de                   mov    dh, bl
 3a6:   48 83 e0 01             and    rax, 0x1
 3aa:   48 83 e3 01             and    rbx, 0x1
 3ae:   40 8a bc 43 8f 1b 60 00         mov    dil, BYTE PTR [rbx+rax*2+0x601b8f]
 3b6:   40 88 fe                mov    sil, dil
 3b9:   40 d0 ee                shr    sil, 1
 3bc:   88 d0                   mov    al, dl
 3be:   24 fe                   and    al, 0xfe
 3c0:   40 08 f0                or     al, sil
 3c3:   40 80 e7 01             and    dil, 0x1
 3c7:   88 f3                   mov    bl, dh
 3c9:   80 e3 fe                and    bl, 0xfe
 3cc:   40 08 fb                or     bl, dil
 3cf:   d0 c0                   rol    al, 1
 3d1:   d0 c3                   rol    bl, 1
 3d3:   e2 cd                   loop   0x3a2
 3d5:   88 c7                   mov    bh, al
 3d7:   66 c1 c3 08             rol    bx, 0x8
 3db:   66 53                   push   bx
 3dd:   8a 04 24                mov    al, BYTE PTR [rsp]
 3e0:   ff c4                   inc    esp
 3e2:   a2 ef be ad de 00 00 00 00      movabs ds:secret[22], al
 3eb:   8a 04 24                mov    al, BYTE PTR [rsp]
 3ee:   ff c4                   inc    esp
 3f0:   a2 ef be ad de 00 00 00 00      movabs ds:secret[23], al
 3f9:   a0 ef be ad de 00 00 00 00      movabs al, ds:secret[6]
 402:   48 ff cc                dec    rsp
 405:   88 04 24                mov    BYTE PTR [rsp], al
 408:   66 5b                   pop    bx
 40a:   b9 08 00 00 00          mov    ecx, 0x8
 40f:   48 31 c0                xor    rax, rax
 412:   86 f8                   xchg   al, bh
 414:   88 c2                   mov    dl, al
 416:   88 de                   mov    dh, bl
 418:   48 83 e0 01             and    rax, 0x1
 41c:   48 83 e3 01             and    rbx, 0x1
 420:   40 8a bc 43 8f 1b 60 00         mov    dil, BYTE PTR [rbx+rax*2+0x601b8f]
 428:   40 88 fe                mov    sil, dil
 42b:   40 d0 ee                shr    sil, 1
 42e:   88 d0                   mov    al, dl
 430:   24 fe                   and    al, 0xfe
 432:   40 08 f0                or     al, sil
 435:   40 80 e7 01             and    dil, 0x1
 439:   88 f3                   mov    bl, dh
 43b:   80 e3 fe                and    bl, 0xfe
 43e:   40 08 fb                or     bl, dil
 441:   d0 c0                   rol    al, 1
 443:   d0 c3                   rol    bl, 1
 445:   e2 cd                   loop   0x414
 447:   88 c7                   mov    bh, al
 449:   66 c1 c3 08             rol    bx, 0x8
 44d:   66 53                   push   bx
 44f:   8a 04 24                mov    al, BYTE PTR [rsp]
 452:   ff c4                   inc    esp
 454:   a2 ef be ad de 00 00 00 00      movabs ds:secret[6], al
 45d:   8a 04 24                mov    al, BYTE PTR [rsp]
 460:   ff c4                   inc    esp
 462:   a2 ef be ad de 00 00 00 00      movabs ds:secret[7], al
 46b:   a0 ef be ad de 00 00 00 00      movabs al, ds:secret[2]
 474:   48 ff cc                dec    rsp
 477:   88 04 24                mov    BYTE PTR [rsp], al
 47a:   66 5b                   pop    bx
 47c:   b9 08 00 00 00          mov    ecx, 0x8
 481:   48 31 c0                xor    rax, rax
 484:   86 f8                   xchg   al, bh
 486:   88 c2                   mov    dl, al
 488:   88 de                   mov    dh, bl
 48a:   48 83 e0 01             and    rax, 0x1
 48e:   48 83 e3 01             and    rbx, 0x1
 492:   40 8a bc 43 8f 1b 60 00         mov    dil, BYTE PTR [rbx+rax*2+0x601b8f]
 49a:   40 88 fe                mov    sil, dil
 49d:   40 d0 ee                shr    sil, 1
 4a0:   88 d0                   mov    al, dl
 4a2:   24 fe                   and    al, 0xfe
 4a4:   40 08 f0                or     al, sil
 4a7:   40 80 e7 01             and    dil, 0x1
 4ab:   88 f3                   mov    bl, dh
 4ad:   80 e3 fe                and    bl, 0xfe
 4b0:   40 08 fb                or     bl, dil
 4b3:   d0 c0                   rol    al, 1
 4b5:   d0 c3                   rol    bl, 1
 4b7:   e2 cd                   loop   0x486
 4b9:   88 c7                   mov    bh, al
 4bb:   66 c1 c3 08             rol    bx, 0x8
 4bf:   66 53                   push   bx
 4c1:   8a 04 24                mov    al, BYTE PTR [rsp]
 4c4:   ff c4                   inc    esp
 4c6:   a2 ef be ad de 00 00 00 00      movabs ds:secret[2], al
 4cf:   8a 04 24                mov    al, BYTE PTR [rsp]
 4d2:   ff c4                   inc    esp
 4d4:   a2 ef be ad de 00 00 00 00      movabs ds:secret[3], al
 4dd:   a0 ef be ad de 00 00 00 00      movabs al, ds:secret[28]
 4e6:   48 ff cc                dec    rsp
 4e9:   88 04 24                mov    BYTE PTR [rsp], al
 4ec:   66 5b                   pop    bx
 4ee:   b9 08 00 00 00          mov    ecx, 0x8
 4f3:   48 31 c0                xor    rax, rax
 4f6:   86 f8                   xchg   al, bh
 4f8:   88 c2                   mov    dl, al
 4fa:   88 de                   mov    dh, bl
 4fc:   48 83 e0 01             and    rax, 0x1
 500:   48 83 e3 01             and    rbx, 0x1
 504:   40 8a bc 43 8f 1b 60 00         mov    dil, BYTE PTR [rbx+rax*2+0x601b8f]
 50c:   40 88 fe                mov    sil, dil
 50f:   40 d0 ee                shr    sil, 1
 512:   88 d0                   mov    al, dl
 514:   24 fe                   and    al, 0xfe
 516:   40 08 f0                or     al, sil
 519:   40 80 e7 01             and    dil, 0x1
 51d:   88 f3                   mov    bl, dh
 51f:   80 e3 fe                and    bl, 0xfe
 522:   40 08 fb                or     bl, dil
 525:   d0 c0                   rol    al, 1
 527:   d0 c3                   rol    bl, 1
 529:   e2 cd                   loop   0x4f8
 52b:   88 c7                   mov    bh, al
 52d:   66 c1 c3 08             rol    bx, 0x8
 531:   66 53                   push   bx
 533:   8a 04 24                mov    al, BYTE PTR [rsp]
 536:   ff c4                   inc    esp
 538:   a2 ef be ad de 00 00 00 00      movabs ds:secret[28], al
 541:   8a 04 24                mov    al, BYTE PTR [rsp]
 544:   ff c4                   inc    esp
 546:   a2 ef be ad de 00 00 00 00      movabs ds:secret[29], al
 54f:   a0 ef be ad de 00 00 00 00      movabs al, ds:secret[16]
 558:   48 ff cc                dec    rsp
 55b:   88 04 24                mov    BYTE PTR [rsp], al
 55e:   66 5b                   pop    bx
 560:   b9 08 00 00 00          mov    ecx, 0x8
 565:   48 31 c0                xor    rax, rax
 568:   86 f8                   xchg   al, bh
 56a:   88 c2                   mov    dl, al
 56c:   88 de                   mov    dh, bl
 56e:   48 83 e0 01             and    rax, 0x1
 572:   48 83 e3 01             and    rbx, 0x1
 576:   40 8a bc 43 8f 1b 60 00         mov    dil, BYTE PTR [rbx+rax*2+0x601b8f]
 57e:   40 88 fe                mov    sil, dil
 581:   40 d0 ee                shr    sil, 1
 584:   88 d0                   mov    al, dl
 586:   24 fe                   and    al, 0xfe
 588:   40 08 f0                or     al, sil
 58b:   40 80 e7 01             and    dil, 0x1
 58f:   88 f3                   mov    bl, dh
 591:   80 e3 fe                and    bl, 0xfe
 594:   40 08 fb                or     bl, dil
 597:   d0 c0                   rol    al, 1
 599:   d0 c3                   rol    bl, 1
 59b:   e2 cd                   loop   0x56a
 59d:   88 c7                   mov    bh, al
 59f:   66 c1 c3 08             rol    bx, 0x8
 5a3:   66 53                   push   bx
 5a5:   8a 04 24                mov    al, BYTE PTR [rsp]
 5a8:   ff c4                   inc    esp
 5aa:   a2 ef be ad de 00 00 00 00      movabs ds:secret[16], al
 5b3:   8a 04 24                mov    al, BYTE PTR [rsp]
 5b6:   ff c4                   inc    esp
 5b8:   a2 ef be ad de 00 00 00 00      movabs ds:secret[17], al
 5c1:   a0 ef be ad de 00 00 00 00      movabs al, ds:secret[24]
 5ca:   48 ff cc                dec    rsp
 5cd:   88 04 24                mov    BYTE PTR [rsp], al
 5d0:   66 5b                   pop    bx
 5d2:   b9 08 00 00 00          mov    ecx, 0x8
 5d7:   48 31 c0                xor    rax, rax
 5da:   86 f8                   xchg   al, bh
 5dc:   88 c2                   mov    dl, al
 5de:   88 de                   mov    dh, bl
 5e0:   48 83 e0 01             and    rax, 0x1
 5e4:   48 83 e3 01             and    rbx, 0x1
 5e8:   40 8a bc 43 8f 1b 60 00         mov    dil, BYTE PTR [rbx+rax*2+0x601b8f]
 5f0:   40 88 fe                mov    sil, dil
 5f3:   40 d0 ee                shr    sil, 1
 5f6:   88 d0                   mov    al, dl
 5f8:   24 fe                   and    al, 0xfe
 5fa:   40 08 f0                or     al, sil
 5fd:   40 80 e7 01             and    dil, 0x1
 601:   88 f3                   mov    bl, dh
 603:   80 e3 fe                and    bl, 0xfe
 606:   40 08 fb                or     bl, dil
 609:   d0 c0                   rol    al, 1
 60b:   d0 c3                   rol    bl, 1
 60d:   e2 cd                   loop   0x5dc
 60f:   88 c7                   mov    bh, al
 611:   66 c1 c3 08             rol    bx, 0x8
 615:   66 53                   push   bx
 617:   8a 04 24                mov    al, BYTE PTR [rsp]
 61a:   ff c4                   inc    esp
 61c:   a2 ef be ad de 00 00 00 00      movabs ds:secret[24], al
 625:   8a 04 24                mov    al, BYTE PTR [rsp]
 628:   ff c4                   inc    esp
 62a:   a2 ef be ad de 00 00 00 00      movabs ds:secret[25], al
 633:   a0 ef be ad de 00 00 00 00      movabs al, ds:secret[4]
 63c:   48 ff cc                dec    rsp
 63f:   88 04 24                mov    BYTE PTR [rsp], al
 642:   66 5b                   pop    bx
 644:   b9 08 00 00 00          mov    ecx, 0x8
 649:   48 31 c0                xor    rax, rax
 64c:   86 f8                   xchg   al, bh
 64e:   88 c2                   mov    dl, al
 650:   88 de                   mov    dh, bl
 652:   48 83 e0 01             and    rax, 0x1
 656:   48 83 e3 01             and    rbx, 0x1
 65a:   40 8a bc 43 8f 1b 60 00         mov    dil, BYTE PTR [rbx+rax*2+0x601b8f]
 662:   40 88 fe                mov    sil, dil
 665:   40 d0 ee                shr    sil, 1
 668:   88 d0                   mov    al, dl
 66a:   24 fe                   and    al, 0xfe
 66c:   40 08 f0                or     al, sil
 66f:   40 80 e7 01             and    dil, 0x1
 673:   88 f3                   mov    bl, dh
 675:   80 e3 fe                and    bl, 0xfe
 678:   40 08 fb                or     bl, dil
 67b:   d0 c0                   rol    al, 1
 67d:   d0 c3                   rol    bl, 1
 67f:   e2 cd                   loop   0x64e
 681:   88 c7                   mov    bh, al
 683:   66 c1 c3 08             rol    bx, 0x8
 687:   66 53                   push   bx
 689:   8a 04 24                mov    al, BYTE PTR [rsp]
 68c:   ff c4                   inc    esp
 68e:   a2 ef be ad de 00 00 00 00      movabs ds:secret[4], al
 697:   8a 04 24                mov    al, BYTE PTR [rsp]
 69a:   ff c4                   inc    esp
 69c:   a2 ef be ad de 00 00 00 00      movabs ds:secret[5], al
 6a5:   a0 ef be ad de 00 00 00 00      movabs al, ds:secret[12]
 6ae:   48 ff cc                dec    rsp
 6b1:   88 04 24                mov    BYTE PTR [rsp], al
 6b4:   66 5b                   pop    bx
 6b6:   b9 08 00 00 00          mov    ecx, 0x8
 6bb:   48 31 c0                xor    rax, rax
 6be:   86 f8                   xchg   al, bh
 6c0:   88 c2                   mov    dl, al
 6c2:   88 de                   mov    dh, bl
 6c4:   48 83 e0 01             and    rax, 0x1
 6c8:   48 83 e3 01             and    rbx, 0x1
 6cc:   40 8a bc 43 8f 1b 60 00         mov    dil, BYTE PTR [rbx+rax*2+0x601b8f]
 6d4:   40 88 fe                mov    sil, dil
 6d7:   40 d0 ee                shr    sil, 1
 6da:   88 d0                   mov    al, dl
 6dc:   24 fe                   and    al, 0xfe
 6de:   40 08 f0                or     al, sil
 6e1:   40 80 e7 01             and    dil, 0x1
 6e5:   88 f3                   mov    bl, dh
 6e7:   80 e3 fe                and    bl, 0xfe
 6ea:   40 08 fb                or     bl, dil
 6ed:   d0 c0                   rol    al, 1
 6ef:   d0 c3                   rol    bl, 1
 6f1:   e2 cd                   loop   0x6c0
 6f3:   88 c7                   mov    bh, al
 6f5:   66 c1 c3 08             rol    bx, 0x8
 6f9:   66 53                   push   bx
 6fb:   8a 04 24                mov    al, BYTE PTR [rsp]
 6fe:   ff c4                   inc    esp
 700:   a2 ef be ad de 00 00 00 00      movabs ds:secret[12], al
 709:   8a 04 24                mov    al, BYTE PTR [rsp]
 70c:   ff c4                   inc    esp
 70e:   a2 ef be ad de 00 00 00 00      movabs ds:secret[13], al
 717:   a0 ef be ad de 00 00 00 00      movabs al, ds:secret[30]
 720:   48 ff cc                dec    rsp
 723:   88 04 24                mov    BYTE PTR [rsp], al
 726:   66 5b                   pop    bx
 728:   b9 08 00 00 00          mov    ecx, 0x8
 72d:   48 31 c0                xor    rax, rax
 730:   86 f8                   xchg   al, bh
 732:   88 c2                   mov    dl, al
 734:   88 de                   mov    dh, bl
 736:   48 83 e0 01             and    rax, 0x1
 73a:   48 83 e3 01             and    rbx, 0x1
 73e:   40 8a bc 43 8f 1b 60 00         mov    dil, BYTE PTR [rbx+rax*2+0x601b8f]
 746:   40 88 fe                mov    sil, dil
 749:   40 d0 ee                shr    sil, 1
 74c:   88 d0                   mov    al, dl
 74e:   24 fe                   and    al, 0xfe
 750:   40 08 f0                or     al, sil
 753:   40 80 e7 01             and    dil, 0x1
 757:   88 f3                   mov    bl, dh
 759:   80 e3 fe                and    bl, 0xfe
 75c:   40 08 fb                or     bl, dil
 75f:   d0 c0                   rol    al, 1
 761:   d0 c3                   rol    bl, 1
 763:   e2 cd                   loop   0x732
 765:   88 c7                   mov    bh, al
 767:   66 c1 c3 08             rol    bx, 0x8
 76b:   66 53                   push   bx
 76d:   8a 04 24                mov    al, BYTE PTR [rsp]
 770:   ff c4                   inc    esp
 772:   a2 ef be ad de 00 00 00 00      movabs ds:secret[30], al
 77b:   8a 04 24                mov    al, BYTE PTR [rsp]
 77e:   ff c4                   inc    esp
 780:   a2 ef be ad de 00 00 00 00      movabs ds:secret[31], al
 789:   a0 ef be ad de 00 00 00 00      movabs al, ds:secret[14]
 792:   48 ff cc                dec    rsp
 795:   88 04 24                mov    BYTE PTR [rsp], al
 798:   66 5b                   pop    bx
 79a:   b9 08 00 00 00          mov    ecx, 0x8
 79f:   48 31 c0                xor    rax, rax
 7a2:   86 f8                   xchg   al, bh
 7a4:   88 c2                   mov    dl, al
 7a6:   88 de                   mov    dh, bl
 7a8:   48 83 e0 01             and    rax, 0x1
 7ac:   48 83 e3 01             and    rbx, 0x1
 7b0:   40 8a bc 43 8f 1b 60 00         mov    dil, BYTE PTR [rbx+rax*2+0x601b8f]
 7b8:   40 88 fe                mov    sil, dil
 7bb:   40 d0 ee                shr    sil, 1
 7be:   88 d0                   mov    al, dl
 7c0:   24 fe                   and    al, 0xfe
 7c2:   40 08 f0                or     al, sil
 7c5:   40 80 e7 01             and    dil, 0x1
 7c9:   88 f3                   mov    bl, dh
 7cb:   80 e3 fe                and    bl, 0xfe
 7ce:   40 08 fb                or     bl, dil
 7d1:   d0 c0                   rol    al, 1
 7d3:   d0 c3                   rol    bl, 1
 7d5:   e2 cd                   loop   0x7a4
 7d7:   88 c7                   mov    bh, al
 7d9:   66 c1 c3 08             rol    bx, 0x8
 7dd:   66 53                   push   bx
 7df:   8a 04 24                mov    al, BYTE PTR [rsp]
 7e2:   ff c4                   inc    esp
 7e4:   a2 ef be ad de 00 00 00 00      movabs ds:secret[14], al
 7ed:   8a 04 24                mov    al, BYTE PTR [rsp]
 7f0:   ff c4                   inc    esp
 7f2:   a2 ef be ad de 00 00 00 00      movabs ds:secret[15], al
 7fb:   a0 ef be ad de 00 00 00 00      movabs al, ds:secret[20]
 804:   48 ff cc                dec    rsp
 807:   88 04 24                mov    BYTE PTR [rsp], al
 80a:   66 5b                   pop    bx
 80c:   b9 08 00 00 00          mov    ecx, 0x8
 811:   48 31 c0                xor    rax, rax
 814:   86 f8                   xchg   al, bh
 816:   88 c2                   mov    dl, al
 818:   88 de                   mov    dh, bl
 81a:   48 83 e0 01             and    rax, 0x1
 81e:   48 83 e3 01             and    rbx, 0x1
 822:   40 8a bc 43 8f 1b 60 00         mov    dil, BYTE PTR [rbx+rax*2+0x601b8f]
 82a:   40 88 fe                mov    sil, dil
 82d:   40 d0 ee                shr    sil, 1
 830:   88 d0                   mov    al, dl
 832:   24 fe                   and    al, 0xfe
 834:   40 08 f0                or     al, sil
 837:   40 80 e7 01             and    dil, 0x1
 83b:   88 f3                   mov    bl, dh
 83d:   80 e3 fe                and    bl, 0xfe
 840:   40 08 fb                or     bl, dil
 843:   d0 c0                   rol    al, 1
 845:   d0 c3                   rol    bl, 1
 847:   e2 cd                   loop   0x816
 849:   88 c7                   mov    bh, al
 84b:   66 c1 c3 08             rol    bx, 0x8
 84f:   66 53                   push   bx
 851:   8a 04 24                mov    al, BYTE PTR [rsp]
 854:   ff c4                   inc    esp
 856:   a2 ef be ad de 00 00 00 00      movabs ds:secret[20], al
 85f:   8a 04 24                mov    al, BYTE PTR [rsp]
 862:   ff c4                   inc    esp
 864:   a2 ef be ad de 00 00 00 00      movabs ds:secret[21], al
 86d:   a0 ef be ad de 00 00 00 00      movabs al, ds:secret[18]
 876:   48 ff cc                dec    rsp
 879:   88 04 24                mov    BYTE PTR [rsp], al
 87c:   66 5b                   pop    bx
 87e:   b9 08 00 00 00          mov    ecx, 0x8
 883:   48 31 c0                xor    rax, rax
 886:   86 f8                   xchg   al, bh
 888:   88 c2                   mov    dl, al
 88a:   88 de                   mov    dh, bl
 88c:   48 83 e0 01             and    rax, 0x1
 890:   48 83 e3 01             and    rbx, 0x1
 894:   40 8a bc 43 8f 1b 60 00         mov    dil, BYTE PTR [rbx+rax*2+0x601b8f]
 89c:   40 88 fe                mov    sil, dil
 89f:   40 d0 ee                shr    sil, 1
 8a2:   88 d0                   mov    al, dl
 8a4:   24 fe                   and    al, 0xfe
 8a6:   40 08 f0                or     al, sil
 8a9:   40 80 e7 01             and    dil, 0x1
 8ad:   88 f3                   mov    bl, dh
 8af:   80 e3 fe                and    bl, 0xfe
 8b2:   40 08 fb                or     bl, dil
 8b5:   d0 c0                   rol    al, 1
 8b7:   d0 c3                   rol    bl, 1
 8b9:   e2 cd                   loop   0x888
 8bb:   88 c7                   mov    bh, al
 8bd:   66 c1 c3 08             rol    bx, 0x8
 8c1:   66 53                   push   bx
 8c3:   8a 04 24                mov    al, BYTE PTR [rsp]
 8c6:   ff c4                   inc    esp
 8c8:   a2 ef be ad de 00 00 00 00      movabs ds:secret[18], al
 8d1:   8a 04 24                mov    al, BYTE PTR [rsp]
 8d4:   ff c4                   inc    esp
 8d6:   a2 ef be ad de 00 00 00 00      movabs ds:secret[19], al
 8df:   a0 ef be ad de 00 00 00 00      movabs al, ds:secret[8]
 8e8:   48 ff cc                dec    rsp
 8eb:   88 04 24                mov    BYTE PTR [rsp], al
 8ee:   66 5b                   pop    bx
 8f0:   b9 08 00 00 00          mov    ecx, 0x8
 8f5:   48 31 c0                xor    rax, rax
 8f8:   86 f8                   xchg   al, bh
 8fa:   88 c2                   mov    dl, al
 8fc:   88 de                   mov    dh, bl
 8fe:   48 83 e0 01             and    rax, 0x1
 902:   48 83 e3 01             and    rbx, 0x1
 906:   40 8a bc 43 8f 1b 60 00         mov    dil, BYTE PTR [rbx+rax*2+0x601b8f]
 90e:   40 88 fe                mov    sil, dil
 911:   40 d0 ee                shr    sil, 1
 914:   88 d0                   mov    al, dl
 916:   24 fe                   and    al, 0xfe
 918:   40 08 f0                or     al, sil
 91b:   40 80 e7 01             and    dil, 0x1
 91f:   88 f3                   mov    bl, dh
 921:   80 e3 fe                and    bl, 0xfe
 924:   40 08 fb                or     bl, dil
 927:   d0 c0                   rol    al, 1
 929:   d0 c3                   rol    bl, 1
 92b:   e2 cd                   loop   0x8fa
 92d:   88 c7                   mov    bh, al
 92f:   66 c1 c3 08             rol    bx, 0x8
 933:   66 53                   push   bx
 935:   8a 04 24                mov    al, BYTE PTR [rsp]
 938:   ff c4                   inc    esp
 93a:   a2 ef be ad de 00 00 00 00      movabs ds:secret[8], al
 943:   8a 04 24                mov    al, BYTE PTR [rsp]
 946:   ff c4                   inc    esp
 948:   a2 ef be ad de 00 00 00 00      movabs ds:secret[9], al
 951:   a0 ef be ad de 00 00 00 00      movabs al, ds:secret[10]
 95a:   48 ff cc                dec    rsp
 95d:   88 04 24                mov    BYTE PTR [rsp], al
 960:   66 5b                   pop    bx
 962:   b9 08 00 00 00          mov    ecx, 0x8
 967:   48 31 c0                xor    rax, rax
 96a:   86 f8                   xchg   al, bh
 96c:   88 c2                   mov    dl, al
 96e:   88 de                   mov    dh, bl
 970:   48 83 e0 01             and    rax, 0x1
 974:   48 83 e3 01             and    rbx, 0x1
 978:   40 8a bc 43 8f 1b 60 00         mov    dil, BYTE PTR [rbx+rax*2+0x601b8f]
 980:   40 88 fe                mov    sil, dil
 983:   40 d0 ee                shr    sil, 1
 986:   88 d0                   mov    al, dl
 988:   24 fe                   and    al, 0xfe
 98a:   40 08 f0                or     al, sil
 98d:   40 80 e7 01             and    dil, 0x1
 991:   88 f3                   mov    bl, dh
 993:   80 e3 fe                and    bl, 0xfe
 996:   40 08 fb                or     bl, dil
 999:   d0 c0                   rol    al, 1
 99b:   d0 c3                   rol    bl, 1
 99d:   e2 cd                   loop   0x96c
 99f:   88 c7                   mov    bh, al
 9a1:   66 c1 c3 08             rol    bx, 0x8
 9a5:   66 53                   push   bx
 9a7:   8a 04 24                mov    al, BYTE PTR [rsp]
 9aa:   ff c4                   inc    esp
 9ac:   a2 ef be ad de 00 00 00 00      movabs ds:secret[10], al
 9b5:   8a 04 24                mov    al, BYTE PTR [rsp]
 9b8:   ff c4                   inc    esp
 9ba:   a2 ef be ad de 00 00 00 00      movabs ds:secret[11], al


[+] 862:>1?3;=<47950JMFHENDC@ILABKG-?-G-5-3-I-C-1-7-9-M-;-A-=-K-EO&-O-NE&-E-D=&-=-<A&-A-@G&-G-F7&-7-65&-5-49&-9-8I&-I-H1&-1-0M&-M-L3&-3-2;&-;-:K&-K-JC&-C-B?&-?->!
   0:   a0 ef be ad de 00 00 00 00      movabs al, ds:secret[8]
   9:   48 ff cc                dec    rsp
   c:   88 04 24                mov    BYTE PTR [rsp], al
   f:   a0 ef be ad de 00 00 00 00      movabs al, ds:secret[6]
  18:   48 ff cc                dec    rsp
  1b:   88 04 24                mov    BYTE PTR [rsp], al
  1e:   a0 ef be ad de 00 00 00 00      movabs al, ds:secret[2]
  27:   48 ff cc                dec    rsp
  2a:   88 04 24                mov    BYTE PTR [rsp], al
  2d:   a0 ef be ad de 00 00 00 00      movabs al, ds:secret[10]
  36:   48 ff cc                dec    rsp
  39:   88 04 24                mov    BYTE PTR [rsp], al
  3c:   a0 ef be ad de 00 00 00 00      movabs al, ds:secret[14]
  45:   48 ff cc                dec    rsp
  48:   88 04 24                mov    BYTE PTR [rsp], al
  4b:   a0 ef be ad de 00 00 00 00      movabs al, ds:secret[1]
  54:   48 ff cc                dec    rsp
  57:   88 04 24                mov    BYTE PTR [rsp], al
  5a:   a0 ef be ad de 00 00 00 00      movabs al, ds:secret[15]
  63:   48 ff cc                dec    rsp
  66:   88 04 24                mov    BYTE PTR [rsp], al
  69:   a0 ef be ad de 00 00 00 00      movabs al, ds:secret[3]
  72:   48 ff cc                dec    rsp
  75:   88 04 24                mov    BYTE PTR [rsp], al
  78:   a0 ef be ad de 00 00 00 00      movabs al, ds:secret[11]
  81:   48 ff cc                dec    rsp
  84:   88 04 24                mov    BYTE PTR [rsp], al
  87:   a0 ef be ad de 00 00 00 00      movabs al, ds:secret[13]
  90:   48 ff cc                dec    rsp
  93:   88 04 24                mov    BYTE PTR [rsp], al
  96:   a0 ef be ad de 00 00 00 00      movabs al, ds:secret[12]
  9f:   48 ff cc                dec    rsp
  a2:   88 04 24                mov    BYTE PTR [rsp], al
  a5:   a0 ef be ad de 00 00 00 00      movabs al, ds:secret[4]
  ae:   48 ff cc                dec    rsp
  b1:   88 04 24                mov    BYTE PTR [rsp], al
  b4:   a0 ef be ad de 00 00 00 00      movabs al, ds:secret[7]
  bd:   48 ff cc                dec    rsp
  c0:   88 04 24                mov    BYTE PTR [rsp], al
  c3:   a0 ef be ad de 00 00 00 00      movabs al, ds:secret[9]
  cc:   48 ff cc                dec    rsp
  cf:   88 04 24                mov    BYTE PTR [rsp], al
  d2:   a0 ef be ad de 00 00 00 00      movabs al, ds:secret[5]
  db:   48 ff cc                dec    rsp
  de:   88 04 24                mov    BYTE PTR [rsp], al
  e1:   a0 ef be ad de 00 00 00 00      movabs al, ds:secret[0]
  ea:   48 ff cc                dec    rsp
  ed:   88 04 24                mov    BYTE PTR [rsp], al
  f0:   a0 ef be ad de 00 00 00 00      movabs al, ds:secret[26]
  f9:   48 ff cc                dec    rsp
  fc:   88 04 24                mov    BYTE PTR [rsp], al
  ff:   a0 ef be ad de 00 00 00 00      movabs al, ds:secret[29]
 108:   48 ff cc                dec    rsp
 10b:   88 04 24                mov    BYTE PTR [rsp], al
 10e:   a0 ef be ad de 00 00 00 00      movabs al, ds:secret[22]
 117:   48 ff cc                dec    rsp
 11a:   88 04 24                mov    BYTE PTR [rsp], al
 11d:   a0 ef be ad de 00 00 00 00      movabs al, ds:secret[24]
 126:   48 ff cc                dec    rsp
 129:   88 04 24                mov    BYTE PTR [rsp], al
 12c:   a0 ef be ad de 00 00 00 00      movabs al, ds:secret[21]
 135:   48 ff cc                dec    rsp
 138:   88 04 24                mov    BYTE PTR [rsp], al
 13b:   a0 ef be ad de 00 00 00 00      movabs al, ds:secret[30]
 144:   48 ff cc                dec    rsp
 147:   88 04 24                mov    BYTE PTR [rsp], al
 14a:   a0 ef be ad de 00 00 00 00      movabs al, ds:secret[20]
 153:   48 ff cc                dec    rsp
 156:   88 04 24                mov    BYTE PTR [rsp], al
 159:   a0 ef be ad de 00 00 00 00      movabs al, ds:secret[19]
 162:   48 ff cc                dec    rsp
 165:   88 04 24                mov    BYTE PTR [rsp], al
 168:   a0 ef be ad de 00 00 00 00      movabs al, ds:secret[16]
 171:   48 ff cc                dec    rsp
 174:   88 04 24                mov    BYTE PTR [rsp], al
 177:   a0 ef be ad de 00 00 00 00      movabs al, ds:secret[25]
 180:   48 ff cc                dec    rsp
 183:   88 04 24                mov    BYTE PTR [rsp], al
 186:   a0 ef be ad de 00 00 00 00      movabs al, ds:secret[28]
 18f:   48 ff cc                dec    rsp
 192:   88 04 24                mov    BYTE PTR [rsp], al
 195:   a0 ef be ad de 00 00 00 00      movabs al, ds:secret[17]
 19e:   48 ff cc                dec    rsp
 1a1:   88 04 24                mov    BYTE PTR [rsp], al
 1a4:   a0 ef be ad de 00 00 00 00      movabs al, ds:secret[18]
 1ad:   48 ff cc                dec    rsp
 1b0:   88 04 24                mov    BYTE PTR [rsp], al
 1b3:   a0 ef be ad de 00 00 00 00      movabs al, ds:secret[27]
 1bc:   48 ff cc                dec    rsp
 1bf:   88 04 24                mov    BYTE PTR [rsp], al
 1c2:   a0 ef be ad de 00 00 00 00      movabs al, ds:secret[23]
 1cb:   48 ff cc                dec    rsp
 1ce:   88 04 24                mov    BYTE PTR [rsp], al
 1d1:   8a 04 24                mov    al, BYTE PTR [rsp]
 1d4:   ff c4                   inc    esp
 1d6:   a2 ef be ad de 00 00 00 00      movabs ds:secret[15], al
 1df:   8a 04 24                mov    al, BYTE PTR [rsp]
 1e2:   ff c4                   inc    esp
 1e4:   a2 ef be ad de 00 00 00 00      movabs ds:secret[23], al
 1ed:   8a 04 24                mov    al, BYTE PTR [rsp]
 1f0:   ff c4                   inc    esp
 1f2:   a2 ef be ad de 00 00 00 00      movabs ds:secret[5], al
 1fb:   8a 04 24                mov    al, BYTE PTR [rsp]
 1fe:   ff c4                   inc    esp
 200:   a2 ef be ad de 00 00 00 00      movabs ds:secret[3], al
 209:   8a 04 24                mov    al, BYTE PTR [rsp]
 20c:   ff c4                   inc    esp
 20e:   a2 ef be ad de 00 00 00 00      movabs ds:secret[25], al
 217:   8a 04 24                mov    al, BYTE PTR [rsp]
 21a:   ff c4                   inc    esp
 21c:   a2 ef be ad de 00 00 00 00      movabs ds:secret[19], al
 225:   8a 04 24                mov    al, BYTE PTR [rsp]
 228:   ff c4                   inc    esp
 22a:   a2 ef be ad de 00 00 00 00      movabs ds:secret[1], al
 233:   8a 04 24                mov    al, BYTE PTR [rsp]
 236:   ff c4                   inc    esp
 238:   a2 ef be ad de 00 00 00 00      movabs ds:secret[7], al
 241:   8a 04 24                mov    al, BYTE PTR [rsp]
 244:   ff c4                   inc    esp
 246:   a2 ef be ad de 00 00 00 00      movabs ds:secret[9], al
 24f:   8a 04 24                mov    al, BYTE PTR [rsp]
 252:   ff c4                   inc    esp
 254:   a2 ef be ad de 00 00 00 00      movabs ds:secret[29], al
 25d:   8a 04 24                mov    al, BYTE PTR [rsp]
 260:   ff c4                   inc    esp
 262:   a2 ef be ad de 00 00 00 00      movabs ds:secret[11], al
 26b:   8a 04 24                mov    al, BYTE PTR [rsp]
 26e:   ff c4                   inc    esp
 270:   a2 ef be ad de 00 00 00 00      movabs ds:secret[17], al
 279:   8a 04 24                mov    al, BYTE PTR [rsp]
 27c:   ff c4                   inc    esp
 27e:   a2 ef be ad de 00 00 00 00      movabs ds:secret[13], al
 287:   8a 04 24                mov    al, BYTE PTR [rsp]
 28a:   ff c4                   inc    esp
 28c:   a2 ef be ad de 00 00 00 00      movabs ds:secret[27], al
 295:   8a 04 24                mov    al, BYTE PTR [rsp]
 298:   ff c4                   inc    esp
 29a:   a2 ef be ad de 00 00 00 00      movabs ds:secret[21], al
 2a3:   a0 ef be ad de 00 00 00 00      movabs al, ds:secret[31]
 2ac:   48 ff cc                dec    rsp
 2af:   88 04 24                mov    BYTE PTR [rsp], al
 2b2:   66 5b                   pop    bx
 2b4:   b9 08 00 00 00          mov    ecx, 0x8
 2b9:   48 31 c0                xor    rax, rax
 2bc:   86 f8                   xchg   al, bh
 2be:   88 c2                   mov    dl, al
 2c0:   88 de                   mov    dh, bl
 2c2:   48 83 e0 01             and    rax, 0x1
 2c6:   48 83 e3 01             and    rbx, 0x1
 2ca:   40 8a bc 43 8f 1b 60 00         mov    dil, BYTE PTR [rbx+rax*2+0x601b8f]
 2d2:   40 88 fe                mov    sil, dil
 2d5:   40 d0 ee                shr    sil, 1
 2d8:   88 d0                   mov    al, dl
 2da:   24 fe                   and    al, 0xfe
 2dc:   40 08 f0                or     al, sil
 2df:   40 80 e7 01             and    dil, 0x1
 2e3:   88 f3                   mov    bl, dh
 2e5:   80 e3 fe                and    bl, 0xfe
 2e8:   40 08 fb                or     bl, dil
 2eb:   d0 c0                   rol    al, 1
 2ed:   d0 c3                   rol    bl, 1
 2ef:   e2 cd                   loop   0x2be
 2f1:   88 c7                   mov    bh, al
 2f3:   66 c1 c3 08             rol    bx, 0x8
 2f7:   66 53                   push   bx
 2f9:   8a 04 24                mov    al, BYTE PTR [rsp]
 2fc:   ff c4                   inc    esp
 2fe:   a2 ef be ad de 00 00 00 00      movabs ds:secret[31], al
 307:   8a 04 24                mov    al, BYTE PTR [rsp]
 30a:   ff c4                   inc    esp
 30c:   a2 ef be ad de 00 00 00 00      movabs ds:secret[30], al
 315:   a0 ef be ad de 00 00 00 00      movabs al, ds:secret[21]
 31e:   48 ff cc                dec    rsp
 321:   88 04 24                mov    BYTE PTR [rsp], al
 324:   66 5b                   pop    bx
 326:   b9 08 00 00 00          mov    ecx, 0x8
 32b:   48 31 c0                xor    rax, rax
 32e:   86 f8                   xchg   al, bh
 330:   88 c2                   mov    dl, al
 332:   88 de                   mov    dh, bl
 334:   48 83 e0 01             and    rax, 0x1
 338:   48 83 e3 01             and    rbx, 0x1
 33c:   40 8a bc 43 8f 1b 60 00         mov    dil, BYTE PTR [rbx+rax*2+0x601b8f]
 344:   40 88 fe                mov    sil, dil
 347:   40 d0 ee                shr    sil, 1
 34a:   88 d0                   mov    al, dl
 34c:   24 fe                   and    al, 0xfe
 34e:   40 08 f0                or     al, sil
 351:   40 80 e7 01             and    dil, 0x1
 355:   88 f3                   mov    bl, dh
 357:   80 e3 fe                and    bl, 0xfe
 35a:   40 08 fb                or     bl, dil
 35d:   d0 c0                   rol    al, 1
 35f:   d0 c3                   rol    bl, 1
 361:   e2 cd                   loop   0x330
 363:   88 c7                   mov    bh, al
 365:   66 c1 c3 08             rol    bx, 0x8
 369:   66 53                   push   bx
 36b:   8a 04 24                mov    al, BYTE PTR [rsp]
 36e:   ff c4                   inc    esp
 370:   a2 ef be ad de 00 00 00 00      movabs ds:secret[21], al
 379:   8a 04 24                mov    al, BYTE PTR [rsp]
 37c:   ff c4                   inc    esp
 37e:   a2 ef be ad de 00 00 00 00      movabs ds:secret[20], al
 387:   a0 ef be ad de 00 00 00 00      movabs al, ds:secret[13]
 390:   48 ff cc                dec    rsp
 393:   88 04 24                mov    BYTE PTR [rsp], al
 396:   66 5b                   pop    bx
 398:   b9 08 00 00 00          mov    ecx, 0x8
 39d:   48 31 c0                xor    rax, rax
 3a0:   86 f8                   xchg   al, bh
 3a2:   88 c2                   mov    dl, al
 3a4:   88 de                   mov    dh, bl
 3a6:   48 83 e0 01             and    rax, 0x1
 3aa:   48 83 e3 01             and    rbx, 0x1
 3ae:   40 8a bc 43 8f 1b 60 00         mov    dil, BYTE PTR [rbx+rax*2+0x601b8f]
 3b6:   40 88 fe                mov    sil, dil
 3b9:   40 d0 ee                shr    sil, 1
 3bc:   88 d0                   mov    al, dl
 3be:   24 fe                   and    al, 0xfe
 3c0:   40 08 f0                or     al, sil
 3c3:   40 80 e7 01             and    dil, 0x1
 3c7:   88 f3                   mov    bl, dh
 3c9:   80 e3 fe                and    bl, 0xfe
 3cc:   40 08 fb                or     bl, dil
 3cf:   d0 c0                   rol    al, 1
 3d1:   d0 c3                   rol    bl, 1
 3d3:   e2 cd                   loop   0x3a2
 3d5:   88 c7                   mov    bh, al
 3d7:   66 c1 c3 08             rol    bx, 0x8
 3db:   66 53                   push   bx
 3dd:   8a 04 24                mov    al, BYTE PTR [rsp]
 3e0:   ff c4                   inc    esp
 3e2:   a2 ef be ad de 00 00 00 00      movabs ds:secret[13], al
 3eb:   8a 04 24                mov    al, BYTE PTR [rsp]
 3ee:   ff c4                   inc    esp
 3f0:   a2 ef be ad de 00 00 00 00      movabs ds:secret[12], al
 3f9:   a0 ef be ad de 00 00 00 00      movabs al, ds:secret[17]
 402:   48 ff cc                dec    rsp
 405:   88 04 24                mov    BYTE PTR [rsp], al
 408:   66 5b                   pop    bx
 40a:   b9 08 00 00 00          mov    ecx, 0x8
 40f:   48 31 c0                xor    rax, rax
 412:   86 f8                   xchg   al, bh
 414:   88 c2                   mov    dl, al
 416:   88 de                   mov    dh, bl
 418:   48 83 e0 01             and    rax, 0x1
 41c:   48 83 e3 01             and    rbx, 0x1
 420:   40 8a bc 43 8f 1b 60 00         mov    dil, BYTE PTR [rbx+rax*2+0x601b8f]
 428:   40 88 fe                mov    sil, dil
 42b:   40 d0 ee                shr    sil, 1
 42e:   88 d0                   mov    al, dl
 430:   24 fe                   and    al, 0xfe
 432:   40 08 f0                or     al, sil
 435:   40 80 e7 01             and    dil, 0x1
 439:   88 f3                   mov    bl, dh
 43b:   80 e3 fe                and    bl, 0xfe
 43e:   40 08 fb                or     bl, dil
 441:   d0 c0                   rol    al, 1
 443:   d0 c3                   rol    bl, 1
 445:   e2 cd                   loop   0x414
 447:   88 c7                   mov    bh, al
 449:   66 c1 c3 08             rol    bx, 0x8
 44d:   66 53                   push   bx
 44f:   8a 04 24                mov    al, BYTE PTR [rsp]
 452:   ff c4                   inc    esp
 454:   a2 ef be ad de 00 00 00 00      movabs ds:secret[17], al
 45d:   8a 04 24                mov    al, BYTE PTR [rsp]
 460:   ff c4                   inc    esp
 462:   a2 ef be ad de 00 00 00 00      movabs ds:secret[16], al
 46b:   a0 ef be ad de 00 00 00 00      movabs al, ds:secret[23]
 474:   48 ff cc                dec    rsp
 477:   88 04 24                mov    BYTE PTR [rsp], al
 47a:   66 5b                   pop    bx
 47c:   b9 08 00 00 00          mov    ecx, 0x8
 481:   48 31 c0                xor    rax, rax
 484:   86 f8                   xchg   al, bh
 486:   88 c2                   mov    dl, al
 488:   88 de                   mov    dh, bl
 48a:   48 83 e0 01             and    rax, 0x1
 48e:   48 83 e3 01             and    rbx, 0x1
 492:   40 8a bc 43 8f 1b 60 00         mov    dil, BYTE PTR [rbx+rax*2+0x601b8f]
 49a:   40 88 fe                mov    sil, dil
 49d:   40 d0 ee                shr    sil, 1
 4a0:   88 d0                   mov    al, dl
 4a2:   24 fe                   and    al, 0xfe
 4a4:   40 08 f0                or     al, sil
 4a7:   40 80 e7 01             and    dil, 0x1
 4ab:   88 f3                   mov    bl, dh
 4ad:   80 e3 fe                and    bl, 0xfe
 4b0:   40 08 fb                or     bl, dil
 4b3:   d0 c0                   rol    al, 1
 4b5:   d0 c3                   rol    bl, 1
 4b7:   e2 cd                   loop   0x486
 4b9:   88 c7                   mov    bh, al
 4bb:   66 c1 c3 08             rol    bx, 0x8
 4bf:   66 53                   push   bx
 4c1:   8a 04 24                mov    al, BYTE PTR [rsp]
 4c4:   ff c4                   inc    esp
 4c6:   a2 ef be ad de 00 00 00 00      movabs ds:secret[23], al
 4cf:   8a 04 24                mov    al, BYTE PTR [rsp]
 4d2:   ff c4                   inc    esp
 4d4:   a2 ef be ad de 00 00 00 00      movabs ds:secret[22], al
 4dd:   a0 ef be ad de 00 00 00 00      movabs al, ds:secret[7]
 4e6:   48 ff cc                dec    rsp
 4e9:   88 04 24                mov    BYTE PTR [rsp], al
 4ec:   66 5b                   pop    bx
 4ee:   b9 08 00 00 00          mov    ecx, 0x8
 4f3:   48 31 c0                xor    rax, rax
 4f6:   86 f8                   xchg   al, bh
 4f8:   88 c2                   mov    dl, al
 4fa:   88 de                   mov    dh, bl
 4fc:   48 83 e0 01             and    rax, 0x1
 500:   48 83 e3 01             and    rbx, 0x1
 504:   40 8a bc 43 8f 1b 60 00         mov    dil, BYTE PTR [rbx+rax*2+0x601b8f]
 50c:   40 88 fe                mov    sil, dil
 50f:   40 d0 ee                shr    sil, 1
 512:   88 d0                   mov    al, dl
 514:   24 fe                   and    al, 0xfe
 516:   40 08 f0                or     al, sil
 519:   40 80 e7 01             and    dil, 0x1
 51d:   88 f3                   mov    bl, dh
 51f:   80 e3 fe                and    bl, 0xfe
 522:   40 08 fb                or     bl, dil
 525:   d0 c0                   rol    al, 1
 527:   d0 c3                   rol    bl, 1
 529:   e2 cd                   loop   0x4f8
 52b:   88 c7                   mov    bh, al
 52d:   66 c1 c3 08             rol    bx, 0x8
 531:   66 53                   push   bx
 533:   8a 04 24                mov    al, BYTE PTR [rsp]
 536:   ff c4                   inc    esp
 538:   a2 ef be ad de 00 00 00 00      movabs ds:secret[7], al
 541:   8a 04 24                mov    al, BYTE PTR [rsp]
 544:   ff c4                   inc    esp
 546:   a2 ef be ad de 00 00 00 00      movabs ds:secret[6], al
 54f:   a0 ef be ad de 00 00 00 00      movabs al, ds:secret[5]
 558:   48 ff cc                dec    rsp
 55b:   88 04 24                mov    BYTE PTR [rsp], al
 55e:   66 5b                   pop    bx
 560:   b9 08 00 00 00          mov    ecx, 0x8
 565:   48 31 c0                xor    rax, rax
 568:   86 f8                   xchg   al, bh
 56a:   88 c2                   mov    dl, al
 56c:   88 de                   mov    dh, bl
 56e:   48 83 e0 01             and    rax, 0x1
 572:   48 83 e3 01             and    rbx, 0x1
 576:   40 8a bc 43 8f 1b 60 00         mov    dil, BYTE PTR [rbx+rax*2+0x601b8f]
 57e:   40 88 fe                mov    sil, dil
 581:   40 d0 ee                shr    sil, 1
 584:   88 d0                   mov    al, dl
 586:   24 fe                   and    al, 0xfe
 588:   40 08 f0                or     al, sil
 58b:   40 80 e7 01             and    dil, 0x1
 58f:   88 f3                   mov    bl, dh
 591:   80 e3 fe                and    bl, 0xfe
 594:   40 08 fb                or     bl, dil
 597:   d0 c0                   rol    al, 1
 599:   d0 c3                   rol    bl, 1
 59b:   e2 cd                   loop   0x56a
 59d:   88 c7                   mov    bh, al
 59f:   66 c1 c3 08             rol    bx, 0x8
 5a3:   66 53                   push   bx
 5a5:   8a 04 24                mov    al, BYTE PTR [rsp]
 5a8:   ff c4                   inc    esp
 5aa:   a2 ef be ad de 00 00 00 00      movabs ds:secret[5], al
 5b3:   8a 04 24                mov    al, BYTE PTR [rsp]
 5b6:   ff c4                   inc    esp
 5b8:   a2 ef be ad de 00 00 00 00      movabs ds:secret[4], al
 5c1:   a0 ef be ad de 00 00 00 00      movabs al, ds:secret[9]
 5ca:   48 ff cc                dec    rsp
 5cd:   88 04 24                mov    BYTE PTR [rsp], al
 5d0:   66 5b                   pop    bx
 5d2:   b9 08 00 00 00          mov    ecx, 0x8
 5d7:   48 31 c0                xor    rax, rax
 5da:   86 f8                   xchg   al, bh
 5dc:   88 c2                   mov    dl, al
 5de:   88 de                   mov    dh, bl
 5e0:   48 83 e0 01             and    rax, 0x1
 5e4:   48 83 e3 01             and    rbx, 0x1
 5e8:   40 8a bc 43 8f 1b 60 00         mov    dil, BYTE PTR [rbx+rax*2+0x601b8f]
 5f0:   40 88 fe                mov    sil, dil
 5f3:   40 d0 ee                shr    sil, 1
 5f6:   88 d0                   mov    al, dl
 5f8:   24 fe                   and    al, 0xfe
 5fa:   40 08 f0                or     al, sil
 5fd:   40 80 e7 01             and    dil, 0x1
 601:   88 f3                   mov    bl, dh
 603:   80 e3 fe                and    bl, 0xfe
 606:   40 08 fb                or     bl, dil
 609:   d0 c0                   rol    al, 1
 60b:   d0 c3                   rol    bl, 1
 60d:   e2 cd                   loop   0x5dc
 60f:   88 c7                   mov    bh, al
 611:   66 c1 c3 08             rol    bx, 0x8
 615:   66 53                   push   bx
 617:   8a 04 24                mov    al, BYTE PTR [rsp]
 61a:   ff c4                   inc    esp
 61c:   a2 ef be ad de 00 00 00 00      movabs ds:secret[9], al
 625:   8a 04 24                mov    al, BYTE PTR [rsp]
 628:   ff c4                   inc    esp
 62a:   a2 ef be ad de 00 00 00 00      movabs ds:secret[8], al
 633:   a0 ef be ad de 00 00 00 00      movabs al, ds:secret[25]
 63c:   48 ff cc                dec    rsp
 63f:   88 04 24                mov    BYTE PTR [rsp], al
 642:   66 5b                   pop    bx
 644:   b9 08 00 00 00          mov    ecx, 0x8
 649:   48 31 c0                xor    rax, rax
 64c:   86 f8                   xchg   al, bh
 64e:   88 c2                   mov    dl, al
 650:   88 de                   mov    dh, bl
 652:   48 83 e0 01             and    rax, 0x1
 656:   48 83 e3 01             and    rbx, 0x1
 65a:   40 8a bc 43 8f 1b 60 00         mov    dil, BYTE PTR [rbx+rax*2+0x601b8f]
 662:   40 88 fe                mov    sil, dil
 665:   40 d0 ee                shr    sil, 1
 668:   88 d0                   mov    al, dl
 66a:   24 fe                   and    al, 0xfe
 66c:   40 08 f0                or     al, sil
 66f:   40 80 e7 01             and    dil, 0x1
 673:   88 f3                   mov    bl, dh
 675:   80 e3 fe                and    bl, 0xfe
 678:   40 08 fb                or     bl, dil
 67b:   d0 c0                   rol    al, 1
 67d:   d0 c3                   rol    bl, 1
 67f:   e2 cd                   loop   0x64e
 681:   88 c7                   mov    bh, al
 683:   66 c1 c3 08             rol    bx, 0x8
 687:   66 53                   push   bx
 689:   8a 04 24                mov    al, BYTE PTR [rsp]
 68c:   ff c4                   inc    esp
 68e:   a2 ef be ad de 00 00 00 00      movabs ds:secret[25], al
 697:   8a 04 24                mov    al, BYTE PTR [rsp]
 69a:   ff c4                   inc    esp
 69c:   a2 ef be ad de 00 00 00 00      movabs ds:secret[24], al
 6a5:   a0 ef be ad de 00 00 00 00      movabs al, ds:secret[1]
 6ae:   48 ff cc                dec    rsp
 6b1:   88 04 24                mov    BYTE PTR [rsp], al
 6b4:   66 5b                   pop    bx
 6b6:   b9 08 00 00 00          mov    ecx, 0x8
 6bb:   48 31 c0                xor    rax, rax
 6be:   86 f8                   xchg   al, bh
 6c0:   88 c2                   mov    dl, al
 6c2:   88 de                   mov    dh, bl
 6c4:   48 83 e0 01             and    rax, 0x1
 6c8:   48 83 e3 01             and    rbx, 0x1
 6cc:   40 8a bc 43 8f 1b 60 00         mov    dil, BYTE PTR [rbx+rax*2+0x601b8f]
 6d4:   40 88 fe                mov    sil, dil
 6d7:   40 d0 ee                shr    sil, 1
 6da:   88 d0                   mov    al, dl
 6dc:   24 fe                   and    al, 0xfe
 6de:   40 08 f0                or     al, sil
 6e1:   40 80 e7 01             and    dil, 0x1
 6e5:   88 f3                   mov    bl, dh
 6e7:   80 e3 fe                and    bl, 0xfe
 6ea:   40 08 fb                or     bl, dil
 6ed:   d0 c0                   rol    al, 1
 6ef:   d0 c3                   rol    bl, 1
 6f1:   e2 cd                   loop   0x6c0
 6f3:   88 c7                   mov    bh, al
 6f5:   66 c1 c3 08             rol    bx, 0x8
 6f9:   66 53                   push   bx
 6fb:   8a 04 24                mov    al, BYTE PTR [rsp]
 6fe:   ff c4                   inc    esp
 700:   a2 ef be ad de 00 00 00 00      movabs ds:secret[1], al
 709:   8a 04 24                mov    al, BYTE PTR [rsp]
 70c:   ff c4                   inc    esp
 70e:   a2 ef be ad de 00 00 00 00      movabs ds:secret[0], al
 717:   a0 ef be ad de 00 00 00 00      movabs al, ds:secret[29]
 720:   48 ff cc                dec    rsp
 723:   88 04 24                mov    BYTE PTR [rsp], al
 726:   66 5b                   pop    bx
 728:   b9 08 00 00 00          mov    ecx, 0x8
 72d:   48 31 c0                xor    rax, rax
 730:   86 f8                   xchg   al, bh
 732:   88 c2                   mov    dl, al
 734:   88 de                   mov    dh, bl
 736:   48 83 e0 01             and    rax, 0x1
 73a:   48 83 e3 01             and    rbx, 0x1
 73e:   40 8a bc 43 8f 1b 60 00         mov    dil, BYTE PTR [rbx+rax*2+0x601b8f]
 746:   40 88 fe                mov    sil, dil
 749:   40 d0 ee                shr    sil, 1
 74c:   88 d0                   mov    al, dl
 74e:   24 fe                   and    al, 0xfe
 750:   40 08 f0                or     al, sil
 753:   40 80 e7 01             and    dil, 0x1
 757:   88 f3                   mov    bl, dh
 759:   80 e3 fe                and    bl, 0xfe
 75c:   40 08 fb                or     bl, dil
 75f:   d0 c0                   rol    al, 1
 761:   d0 c3                   rol    bl, 1
 763:   e2 cd                   loop   0x732
 765:   88 c7                   mov    bh, al
 767:   66 c1 c3 08             rol    bx, 0x8
 76b:   66 53                   push   bx
 76d:   8a 04 24                mov    al, BYTE PTR [rsp]
 770:   ff c4                   inc    esp
 772:   a2 ef be ad de 00 00 00 00      movabs ds:secret[29], al
 77b:   8a 04 24                mov    al, BYTE PTR [rsp]
 77e:   ff c4                   inc    esp
 780:   a2 ef be ad de 00 00 00 00      movabs ds:secret[28], al
 789:   a0 ef be ad de 00 00 00 00      movabs al, ds:secret[3]
 792:   48 ff cc                dec    rsp
 795:   88 04 24                mov    BYTE PTR [rsp], al
 798:   66 5b                   pop    bx
 79a:   b9 08 00 00 00          mov    ecx, 0x8
 79f:   48 31 c0                xor    rax, rax
 7a2:   86 f8                   xchg   al, bh
 7a4:   88 c2                   mov    dl, al
 7a6:   88 de                   mov    dh, bl
 7a8:   48 83 e0 01             and    rax, 0x1
 7ac:   48 83 e3 01             and    rbx, 0x1
 7b0:   40 8a bc 43 8f 1b 60 00         mov    dil, BYTE PTR [rbx+rax*2+0x601b8f]
 7b8:   40 88 fe                mov    sil, dil
 7bb:   40 d0 ee                shr    sil, 1
 7be:   88 d0                   mov    al, dl
 7c0:   24 fe                   and    al, 0xfe
 7c2:   40 08 f0                or     al, sil
 7c5:   40 80 e7 01             and    dil, 0x1
 7c9:   88 f3                   mov    bl, dh
 7cb:   80 e3 fe                and    bl, 0xfe
 7ce:   40 08 fb                or     bl, dil
 7d1:   d0 c0                   rol    al, 1
 7d3:   d0 c3                   rol    bl, 1
 7d5:   e2 cd                   loop   0x7a4
 7d7:   88 c7                   mov    bh, al
 7d9:   66 c1 c3 08             rol    bx, 0x8
 7dd:   66 53                   push   bx
 7df:   8a 04 24                mov    al, BYTE PTR [rsp]
 7e2:   ff c4                   inc    esp
 7e4:   a2 ef be ad de 00 00 00 00      movabs ds:secret[3], al
 7ed:   8a 04 24                mov    al, BYTE PTR [rsp]
 7f0:   ff c4                   inc    esp
 7f2:   a2 ef be ad de 00 00 00 00      movabs ds:secret[2], al
 7fb:   a0 ef be ad de 00 00 00 00      movabs al, ds:secret[11]
 804:   48 ff cc                dec    rsp
 807:   88 04 24                mov    BYTE PTR [rsp], al
 80a:   66 5b                   pop    bx
 80c:   b9 08 00 00 00          mov    ecx, 0x8
 811:   48 31 c0                xor    rax, rax
 814:   86 f8                   xchg   al, bh
 816:   88 c2                   mov    dl, al
 818:   88 de                   mov    dh, bl
 81a:   48 83 e0 01             and    rax, 0x1
 81e:   48 83 e3 01             and    rbx, 0x1
 822:   40 8a bc 43 8f 1b 60 00         mov    dil, BYTE PTR [rbx+rax*2+0x601b8f]
 82a:   40 88 fe                mov    sil, dil
 82d:   40 d0 ee                shr    sil, 1
 830:   88 d0                   mov    al, dl
 832:   24 fe                   and    al, 0xfe
 834:   40 08 f0                or     al, sil
 837:   40 80 e7 01             and    dil, 0x1
 83b:   88 f3                   mov    bl, dh
 83d:   80 e3 fe                and    bl, 0xfe
 840:   40 08 fb                or     bl, dil
 843:   d0 c0                   rol    al, 1
 845:   d0 c3                   rol    bl, 1
 847:   e2 cd                   loop   0x816
 849:   88 c7                   mov    bh, al
 84b:   66 c1 c3 08             rol    bx, 0x8
 84f:   66 53                   push   bx
 851:   8a 04 24                mov    al, BYTE PTR [rsp]
 854:   ff c4                   inc    esp
 856:   a2 ef be ad de 00 00 00 00      movabs ds:secret[11], al
 85f:   8a 04 24                mov    al, BYTE PTR [rsp]
 862:   ff c4                   inc    esp
 864:   a2 ef be ad de 00 00 00 00      movabs ds:secret[10], al
 86d:   a0 ef be ad de 00 00 00 00      movabs al, ds:secret[27]
 876:   48 ff cc                dec    rsp
 879:   88 04 24                mov    BYTE PTR [rsp], al
 87c:   66 5b                   pop    bx
 87e:   b9 08 00 00 00          mov    ecx, 0x8
 883:   48 31 c0                xor    rax, rax
 886:   86 f8                   xchg   al, bh
 888:   88 c2                   mov    dl, al
 88a:   88 de                   mov    dh, bl
 88c:   48 83 e0 01             and    rax, 0x1
 890:   48 83 e3 01             and    rbx, 0x1
 894:   40 8a bc 43 8f 1b 60 00         mov    dil, BYTE PTR [rbx+rax*2+0x601b8f]
 89c:   40 88 fe                mov    sil, dil
 89f:   40 d0 ee                shr    sil, 1
 8a2:   88 d0                   mov    al, dl
 8a4:   24 fe                   and    al, 0xfe
 8a6:   40 08 f0                or     al, sil
 8a9:   40 80 e7 01             and    dil, 0x1
 8ad:   88 f3                   mov    bl, dh
 8af:   80 e3 fe                and    bl, 0xfe
 8b2:   40 08 fb                or     bl, dil
 8b5:   d0 c0                   rol    al, 1
 8b7:   d0 c3                   rol    bl, 1
 8b9:   e2 cd                   loop   0x888
 8bb:   88 c7                   mov    bh, al
 8bd:   66 c1 c3 08             rol    bx, 0x8
 8c1:   66 53                   push   bx
 8c3:   8a 04 24                mov    al, BYTE PTR [rsp]
 8c6:   ff c4                   inc    esp
 8c8:   a2 ef be ad de 00 00 00 00      movabs ds:secret[27], al
 8d1:   8a 04 24                mov    al, BYTE PTR [rsp]
 8d4:   ff c4                   inc    esp
 8d6:   a2 ef be ad de 00 00 00 00      movabs ds:secret[26], al
 8df:   a0 ef be ad de 00 00 00 00      movabs al, ds:secret[19]
 8e8:   48 ff cc                dec    rsp
 8eb:   88 04 24                mov    BYTE PTR [rsp], al
 8ee:   66 5b                   pop    bx
 8f0:   b9 08 00 00 00          mov    ecx, 0x8
 8f5:   48 31 c0                xor    rax, rax
 8f8:   86 f8                   xchg   al, bh
 8fa:   88 c2                   mov    dl, al
 8fc:   88 de                   mov    dh, bl
 8fe:   48 83 e0 01             and    rax, 0x1
 902:   48 83 e3 01             and    rbx, 0x1
 906:   40 8a bc 43 8f 1b 60 00         mov    dil, BYTE PTR [rbx+rax*2+0x601b8f]
 90e:   40 88 fe                mov    sil, dil
 911:   40 d0 ee                shr    sil, 1
 914:   88 d0                   mov    al, dl
 916:   24 fe                   and    al, 0xfe
 918:   40 08 f0                or     al, sil
 91b:   40 80 e7 01             and    dil, 0x1
 91f:   88 f3                   mov    bl, dh
 921:   80 e3 fe                and    bl, 0xfe
 924:   40 08 fb                or     bl, dil
 927:   d0 c0                   rol    al, 1
 929:   d0 c3                   rol    bl, 1
 92b:   e2 cd                   loop   0x8fa
 92d:   88 c7                   mov    bh, al
 92f:   66 c1 c3 08             rol    bx, 0x8
 933:   66 53                   push   bx
 935:   8a 04 24                mov    al, BYTE PTR [rsp]
 938:   ff c4                   inc    esp
 93a:   a2 ef be ad de 00 00 00 00      movabs ds:secret[19], al
 943:   8a 04 24                mov    al, BYTE PTR [rsp]
 946:   ff c4                   inc    esp
 948:   a2 ef be ad de 00 00 00 00      movabs ds:secret[18], al
 951:   a0 ef be ad de 00 00 00 00      movabs al, ds:secret[15]
 95a:   48 ff cc                dec    rsp
 95d:   88 04 24                mov    BYTE PTR [rsp], al
 960:   66 5b                   pop    bx
 962:   b9 08 00 00 00          mov    ecx, 0x8
 967:   48 31 c0                xor    rax, rax
 96a:   86 f8                   xchg   al, bh
 96c:   88 c2                   mov    dl, al
 96e:   88 de                   mov    dh, bl
 970:   48 83 e0 01             and    rax, 0x1
 974:   48 83 e3 01             and    rbx, 0x1
 978:   40 8a bc 43 8f 1b 60 00         mov    dil, BYTE PTR [rbx+rax*2+0x601b8f]
 980:   40 88 fe                mov    sil, dil
 983:   40 d0 ee                shr    sil, 1
 986:   88 d0                   mov    al, dl
 988:   24 fe                   and    al, 0xfe
 98a:   40 08 f0                or     al, sil
 98d:   40 80 e7 01             and    dil, 0x1
 991:   88 f3                   mov    bl, dh
 993:   80 e3 fe                and    bl, 0xfe
 996:   40 08 fb                or     bl, dil
 999:   d0 c0                   rol    al, 1
 99b:   d0 c3                   rol    bl, 1
 99d:   e2 cd                   loop   0x96c
 99f:   88 c7                   mov    bh, al
 9a1:   66 c1 c3 08             rol    bx, 0x8
 9a5:   66 53                   push   bx
 9a7:   8a 04 24                mov    al, BYTE PTR [rsp]
 9aa:   ff c4                   inc    esp
 9ac:   a2 ef be ad de 00 00 00 00      movabs ds:secret[15], al
 9b5:   8a 04 24                mov    al, BYTE PTR [rsp]
 9b8:   ff c4                   inc    esp
 9ba:   a2 ef be ad de 00 00 00 00      movabs ds:secret[14], al


[+] L7>-L->-7I=J;FC-I-C-F-;-J-=9BK-9-K-B5:DGAM-5-M-A-G-D-:1248@O-1-O-@-8-4-236<H?N-3-N-?-H-<-610&-0-154&-4-5?>&->-?ON&-N-OGF&-F-GA@&-@-A32&-2-3ED&-D-E;:&-:-;CB&-B-CIH&-H-IKJ&-J-KML&-L-M=<&-<-=98&-8-976&-6-7!
   0:   a0 ef be ad de 00 00 00 00      movabs al, ds:secret[28]
   9:   48 ff cc                dec    rsp
   c:   88 04 24                mov    BYTE PTR [rsp], al
   f:   a0 ef be ad de 00 00 00 00      movabs al, ds:secret[7]
  18:   48 ff cc                dec    rsp
  1b:   88 04 24                mov    BYTE PTR [rsp], al
  1e:   a0 ef be ad de 00 00 00 00      movabs al, ds:secret[14]
  27:   48 ff cc                dec    rsp
  2a:   88 04 24                mov    BYTE PTR [rsp], al
  2d:   8a 04 24                mov    al, BYTE PTR [rsp]
  30:   ff c4                   inc    esp
  32:   a2 ef be ad de 00 00 00 00      movabs ds:secret[28], al
  3b:   8a 04 24                mov    al, BYTE PTR [rsp]
  3e:   ff c4                   inc    esp
  40:   a2 ef be ad de 00 00 00 00      movabs ds:secret[14], al
  49:   8a 04 24                mov    al, BYTE PTR [rsp]
  4c:   ff c4                   inc    esp
  4e:   a2 ef be ad de 00 00 00 00      movabs ds:secret[7], al
  57:   a0 ef be ad de 00 00 00 00      movabs al, ds:secret[25]
  60:   48 ff cc                dec    rsp
  63:   88 04 24                mov    BYTE PTR [rsp], al
  66:   a0 ef be ad de 00 00 00 00      movabs al, ds:secret[13]
  6f:   48 ff cc                dec    rsp
  72:   88 04 24                mov    BYTE PTR [rsp], al
  75:   a0 ef be ad de 00 00 00 00      movabs al, ds:secret[26]
  7e:   48 ff cc                dec    rsp
  81:   88 04 24                mov    BYTE PTR [rsp], al
  84:   a0 ef be ad de 00 00 00 00      movabs al, ds:secret[11]
  8d:   48 ff cc                dec    rsp
  90:   88 04 24                mov    BYTE PTR [rsp], al
  93:   a0 ef be ad de 00 00 00 00      movabs al, ds:secret[22]
  9c:   48 ff cc                dec    rsp
  9f:   88 04 24                mov    BYTE PTR [rsp], al
  a2:   a0 ef be ad de 00 00 00 00      movabs al, ds:secret[19]
  ab:   48 ff cc                dec    rsp
  ae:   88 04 24                mov    BYTE PTR [rsp], al
  b1:   8a 04 24                mov    al, BYTE PTR [rsp]
  b4:   ff c4                   inc    esp
  b6:   a2 ef be ad de 00 00 00 00      movabs ds:secret[25], al
  bf:   8a 04 24                mov    al, BYTE PTR [rsp]
  c2:   ff c4                   inc    esp
  c4:   a2 ef be ad de 00 00 00 00      movabs ds:secret[19], al
  cd:   8a 04 24                mov    al, BYTE PTR [rsp]
  d0:   ff c4                   inc    esp
  d2:   a2 ef be ad de 00 00 00 00      movabs ds:secret[22], al
  db:   8a 04 24                mov    al, BYTE PTR [rsp]
  de:   ff c4                   inc    esp
  e0:   a2 ef be ad de 00 00 00 00      movabs ds:secret[11], al
  e9:   8a 04 24                mov    al, BYTE PTR [rsp]
  ec:   ff c4                   inc    esp
  ee:   a2 ef be ad de 00 00 00 00      movabs ds:secret[26], al
  f7:   8a 04 24                mov    al, BYTE PTR [rsp]
  fa:   ff c4                   inc    esp
  fc:   a2 ef be ad de 00 00 00 00      movabs ds:secret[13], al
 105:   a0 ef be ad de 00 00 00 00      movabs al, ds:secret[9]
 10e:   48 ff cc                dec    rsp
 111:   88 04 24                mov    BYTE PTR [rsp], al
 114:   a0 ef be ad de 00 00 00 00      movabs al, ds:secret[18]
 11d:   48 ff cc                dec    rsp
 120:   88 04 24                mov    BYTE PTR [rsp], al
 123:   a0 ef be ad de 00 00 00 00      movabs al, ds:secret[27]
 12c:   48 ff cc                dec    rsp
 12f:   88 04 24                mov    BYTE PTR [rsp], al
 132:   8a 04 24                mov    al, BYTE PTR [rsp]
 135:   ff c4                   inc    esp
 137:   a2 ef be ad de 00 00 00 00      movabs ds:secret[9], al
 140:   8a 04 24                mov    al, BYTE PTR [rsp]
 143:   ff c4                   inc    esp
 145:   a2 ef be ad de 00 00 00 00      movabs ds:secret[27], al
 14e:   8a 04 24                mov    al, BYTE PTR [rsp]
 151:   ff c4                   inc    esp
 153:   a2 ef be ad de 00 00 00 00      movabs ds:secret[18], al
 15c:   a0 ef be ad de 00 00 00 00      movabs al, ds:secret[5]
 165:   48 ff cc                dec    rsp
 168:   88 04 24                mov    BYTE PTR [rsp], al
 16b:   a0 ef be ad de 00 00 00 00      movabs al, ds:secret[10]
 174:   48 ff cc                dec    rsp
 177:   88 04 24                mov    BYTE PTR [rsp], al
 17a:   a0 ef be ad de 00 00 00 00      movabs al, ds:secret[20]
 183:   48 ff cc                dec    rsp
 186:   88 04 24                mov    BYTE PTR [rsp], al
 189:   a0 ef be ad de 00 00 00 00      movabs al, ds:secret[23]
 192:   48 ff cc                dec    rsp
 195:   88 04 24                mov    BYTE PTR [rsp], al
 198:   a0 ef be ad de 00 00 00 00      movabs al, ds:secret[17]
 1a1:   48 ff cc                dec    rsp
 1a4:   88 04 24                mov    BYTE PTR [rsp], al
 1a7:   a0 ef be ad de 00 00 00 00      movabs al, ds:secret[29]
 1b0:   48 ff cc                dec    rsp
 1b3:   88 04 24                mov    BYTE PTR [rsp], al
 1b6:   8a 04 24                mov    al, BYTE PTR [rsp]
 1b9:   ff c4                   inc    esp
 1bb:   a2 ef be ad de 00 00 00 00      movabs ds:secret[5], al
 1c4:   8a 04 24                mov    al, BYTE PTR [rsp]
 1c7:   ff c4                   inc    esp
 1c9:   a2 ef be ad de 00 00 00 00      movabs ds:secret[29], al
 1d2:   8a 04 24                mov    al, BYTE PTR [rsp]
 1d5:   ff c4                   inc    esp
 1d7:   a2 ef be ad de 00 00 00 00      movabs ds:secret[17], al
 1e0:   8a 04 24                mov    al, BYTE PTR [rsp]
 1e3:   ff c4                   inc    esp
 1e5:   a2 ef be ad de 00 00 00 00      movabs ds:secret[23], al
 1ee:   8a 04 24                mov    al, BYTE PTR [rsp]
 1f1:   ff c4                   inc    esp
 1f3:   a2 ef be ad de 00 00 00 00      movabs ds:secret[20], al
 1fc:   8a 04 24                mov    al, BYTE PTR [rsp]
 1ff:   ff c4                   inc    esp
 201:   a2 ef be ad de 00 00 00 00      movabs ds:secret[10], al
 20a:   a0 ef be ad de 00 00 00 00      movabs al, ds:secret[1]
 213:   48 ff cc                dec    rsp
 216:   88 04 24                mov    BYTE PTR [rsp], al
 219:   a0 ef be ad de 00 00 00 00      movabs al, ds:secret[2]
 222:   48 ff cc                dec    rsp
 225:   88 04 24                mov    BYTE PTR [rsp], al
 228:   a0 ef be ad de 00 00 00 00      movabs al, ds:secret[4]
 231:   48 ff cc                dec    rsp
 234:   88 04 24                mov    BYTE PTR [rsp], al
 237:   a0 ef be ad de 00 00 00 00      movabs al, ds:secret[8]
 240:   48 ff cc                dec    rsp
 243:   88 04 24                mov    BYTE PTR [rsp], al
 246:   a0 ef be ad de 00 00 00 00      movabs al, ds:secret[16]
 24f:   48 ff cc                dec    rsp
 252:   88 04 24                mov    BYTE PTR [rsp], al
 255:   a0 ef be ad de 00 00 00 00      movabs al, ds:secret[31]
 25e:   48 ff cc                dec    rsp
 261:   88 04 24                mov    BYTE PTR [rsp], al
 264:   8a 04 24                mov    al, BYTE PTR [rsp]
 267:   ff c4                   inc    esp
 269:   a2 ef be ad de 00 00 00 00      movabs ds:secret[1], al
 272:   8a 04 24                mov    al, BYTE PTR [rsp]
 275:   ff c4                   inc    esp
 277:   a2 ef be ad de 00 00 00 00      movabs ds:secret[31], al
 280:   8a 04 24                mov    al, BYTE PTR [rsp]
 283:   ff c4                   inc    esp
 285:   a2 ef be ad de 00 00 00 00      movabs ds:secret[16], al
 28e:   8a 04 24                mov    al, BYTE PTR [rsp]
 291:   ff c4                   inc    esp
 293:   a2 ef be ad de 00 00 00 00      movabs ds:secret[8], al
 29c:   8a 04 24                mov    al, BYTE PTR [rsp]
 29f:   ff c4                   inc    esp
 2a1:   a2 ef be ad de 00 00 00 00      movabs ds:secret[4], al
 2aa:   8a 04 24                mov    al, BYTE PTR [rsp]
 2ad:   ff c4                   inc    esp
 2af:   a2 ef be ad de 00 00 00 00      movabs ds:secret[2], al
 2b8:   a0 ef be ad de 00 00 00 00      movabs al, ds:secret[3]
 2c1:   48 ff cc                dec    rsp
 2c4:   88 04 24                mov    BYTE PTR [rsp], al
 2c7:   a0 ef be ad de 00 00 00 00      movabs al, ds:secret[6]
 2d0:   48 ff cc                dec    rsp
 2d3:   88 04 24                mov    BYTE PTR [rsp], al
 2d6:   a0 ef be ad de 00 00 00 00      movabs al, ds:secret[12]
 2df:   48 ff cc                dec    rsp
 2e2:   88 04 24                mov    BYTE PTR [rsp], al
 2e5:   a0 ef be ad de 00 00 00 00      movabs al, ds:secret[24]
 2ee:   48 ff cc                dec    rsp
 2f1:   88 04 24                mov    BYTE PTR [rsp], al
 2f4:   a0 ef be ad de 00 00 00 00      movabs al, ds:secret[15]
 2fd:   48 ff cc                dec    rsp
 300:   88 04 24                mov    BYTE PTR [rsp], al
 303:   a0 ef be ad de 00 00 00 00      movabs al, ds:secret[30]
 30c:   48 ff cc                dec    rsp
 30f:   88 04 24                mov    BYTE PTR [rsp], al
 312:   8a 04 24                mov    al, BYTE PTR [rsp]
 315:   ff c4                   inc    esp
 317:   a2 ef be ad de 00 00 00 00      movabs ds:secret[3], al
 320:   8a 04 24                mov    al, BYTE PTR [rsp]
 323:   ff c4                   inc    esp
 325:   a2 ef be ad de 00 00 00 00      movabs ds:secret[30], al
 32e:   8a 04 24                mov    al, BYTE PTR [rsp]
 331:   ff c4                   inc    esp
 333:   a2 ef be ad de 00 00 00 00      movabs ds:secret[15], al
 33c:   8a 04 24                mov    al, BYTE PTR [rsp]
 33f:   ff c4                   inc    esp
 341:   a2 ef be ad de 00 00 00 00      movabs ds:secret[24], al
 34a:   8a 04 24                mov    al, BYTE PTR [rsp]
 34d:   ff c4                   inc    esp
 34f:   a2 ef be ad de 00 00 00 00      movabs ds:secret[12], al
 358:   8a 04 24                mov    al, BYTE PTR [rsp]
 35b:   ff c4                   inc    esp
 35d:   a2 ef be ad de 00 00 00 00      movabs ds:secret[6], al
 366:   a0 ef be ad de 00 00 00 00      movabs al, ds:secret[1]
 36f:   48 ff cc                dec    rsp
 372:   88 04 24                mov    BYTE PTR [rsp], al
 375:   a0 ef be ad de 00 00 00 00      movabs al, ds:secret[0]
 37e:   48 ff cc                dec    rsp
 381:   88 04 24                mov    BYTE PTR [rsp], al
 384:   66 5b                   pop    bx
 386:   b9 08 00 00 00          mov    ecx, 0x8
 38b:   48 31 c0                xor    rax, rax
 38e:   86 f8                   xchg   al, bh
 390:   88 c2                   mov    dl, al
 392:   88 de                   mov    dh, bl
 394:   48 83 e0 01             and    rax, 0x1
 398:   48 83 e3 01             and    rbx, 0x1
 39c:   40 8a bc 43 8f 1b 60 00         mov    dil, BYTE PTR [rbx+rax*2+0x601b8f]
 3a4:   40 88 fe                mov    sil, dil
 3a7:   40 d0 ee                shr    sil, 1
 3aa:   88 d0                   mov    al, dl
 3ac:   24 fe                   and    al, 0xfe
 3ae:   40 08 f0                or     al, sil
 3b1:   40 80 e7 01             and    dil, 0x1
 3b5:   88 f3                   mov    bl, dh
 3b7:   80 e3 fe                and    bl, 0xfe
 3ba:   40 08 fb                or     bl, dil
 3bd:   d0 c0                   rol    al, 1
 3bf:   d0 c3                   rol    bl, 1
 3c1:   e2 cd                   loop   0x390
 3c3:   88 c7                   mov    bh, al
 3c5:   66 c1 c3 08             rol    bx, 0x8
 3c9:   66 53                   push   bx
 3cb:   8a 04 24                mov    al, BYTE PTR [rsp]
 3ce:   ff c4                   inc    esp
 3d0:   a2 ef be ad de 00 00 00 00      movabs ds:secret[0], al
 3d9:   8a 04 24                mov    al, BYTE PTR [rsp]
 3dc:   ff c4                   inc    esp
 3de:   a2 ef be ad de 00 00 00 00      movabs ds:secret[1], al
 3e7:   a0 ef be ad de 00 00 00 00      movabs al, ds:secret[5]
 3f0:   48 ff cc                dec    rsp
 3f3:   88 04 24                mov    BYTE PTR [rsp], al
 3f6:   a0 ef be ad de 00 00 00 00      movabs al, ds:secret[4]
 3ff:   48 ff cc                dec    rsp
 402:   88 04 24                mov    BYTE PTR [rsp], al
 405:   66 5b                   pop    bx
 407:   b9 08 00 00 00          mov    ecx, 0x8
 40c:   48 31 c0                xor    rax, rax
 40f:   86 f8                   xchg   al, bh
 411:   88 c2                   mov    dl, al
 413:   88 de                   mov    dh, bl
 415:   48 83 e0 01             and    rax, 0x1
 419:   48 83 e3 01             and    rbx, 0x1
 41d:   40 8a bc 43 8f 1b 60 00         mov    dil, BYTE PTR [rbx+rax*2+0x601b8f]
 425:   40 88 fe                mov    sil, dil
 428:   40 d0 ee                shr    sil, 1
 42b:   88 d0                   mov    al, dl
 42d:   24 fe                   and    al, 0xfe
 42f:   40 08 f0                or     al, sil
 432:   40 80 e7 01             and    dil, 0x1
 436:   88 f3                   mov    bl, dh
 438:   80 e3 fe                and    bl, 0xfe
 43b:   40 08 fb                or     bl, dil
 43e:   d0 c0                   rol    al, 1
 440:   d0 c3                   rol    bl, 1
 442:   e2 cd                   loop   0x411
 444:   88 c7                   mov    bh, al
 446:   66 c1 c3 08             rol    bx, 0x8
 44a:   66 53                   push   bx
 44c:   8a 04 24                mov    al, BYTE PTR [rsp]
 44f:   ff c4                   inc    esp
 451:   a2 ef be ad de 00 00 00 00      movabs ds:secret[4], al
 45a:   8a 04 24                mov    al, BYTE PTR [rsp]
 45d:   ff c4                   inc    esp
 45f:   a2 ef be ad de 00 00 00 00      movabs ds:secret[5], al
 468:   a0 ef be ad de 00 00 00 00      movabs al, ds:secret[15]
 471:   48 ff cc                dec    rsp
 474:   88 04 24                mov    BYTE PTR [rsp], al
 477:   a0 ef be ad de 00 00 00 00      movabs al, ds:secret[14]
 480:   48 ff cc                dec    rsp
 483:   88 04 24                mov    BYTE PTR [rsp], al
 486:   66 5b                   pop    bx
 488:   b9 08 00 00 00          mov    ecx, 0x8
 48d:   48 31 c0                xor    rax, rax
 490:   86 f8                   xchg   al, bh
 492:   88 c2                   mov    dl, al
 494:   88 de                   mov    dh, bl
 496:   48 83 e0 01             and    rax, 0x1
 49a:   48 83 e3 01             and    rbx, 0x1
 49e:   40 8a bc 43 8f 1b 60 00         mov    dil, BYTE PTR [rbx+rax*2+0x601b8f]
 4a6:   40 88 fe                mov    sil, dil
 4a9:   40 d0 ee                shr    sil, 1
 4ac:   88 d0                   mov    al, dl
 4ae:   24 fe                   and    al, 0xfe
 4b0:   40 08 f0                or     al, sil
 4b3:   40 80 e7 01             and    dil, 0x1
 4b7:   88 f3                   mov    bl, dh
 4b9:   80 e3 fe                and    bl, 0xfe
 4bc:   40 08 fb                or     bl, dil
 4bf:   d0 c0                   rol    al, 1
 4c1:   d0 c3                   rol    bl, 1
 4c3:   e2 cd                   loop   0x492
 4c5:   88 c7                   mov    bh, al
 4c7:   66 c1 c3 08             rol    bx, 0x8
 4cb:   66 53                   push   bx
 4cd:   8a 04 24                mov    al, BYTE PTR [rsp]
 4d0:   ff c4                   inc    esp
 4d2:   a2 ef be ad de 00 00 00 00      movabs ds:secret[14], al
 4db:   8a 04 24                mov    al, BYTE PTR [rsp]
 4de:   ff c4                   inc    esp
 4e0:   a2 ef be ad de 00 00 00 00      movabs ds:secret[15], al
 4e9:   a0 ef be ad de 00 00 00 00      movabs al, ds:secret[31]
 4f2:   48 ff cc                dec    rsp
 4f5:   88 04 24                mov    BYTE PTR [rsp], al
 4f8:   a0 ef be ad de 00 00 00 00      movabs al, ds:secret[30]
 501:   48 ff cc                dec    rsp
 504:   88 04 24                mov    BYTE PTR [rsp], al
 507:   66 5b                   pop    bx
 509:   b9 08 00 00 00          mov    ecx, 0x8
 50e:   48 31 c0                xor    rax, rax
 511:   86 f8                   xchg   al, bh
 513:   88 c2                   mov    dl, al
 515:   88 de                   mov    dh, bl
 517:   48 83 e0 01             and    rax, 0x1
 51b:   48 83 e3 01             and    rbx, 0x1
 51f:   40 8a bc 43 8f 1b 60 00         mov    dil, BYTE PTR [rbx+rax*2+0x601b8f]
 527:   40 88 fe                mov    sil, dil
 52a:   40 d0 ee                shr    sil, 1
 52d:   88 d0                   mov    al, dl
 52f:   24 fe                   and    al, 0xfe
 531:   40 08 f0                or     al, sil
 534:   40 80 e7 01             and    dil, 0x1
 538:   88 f3                   mov    bl, dh
 53a:   80 e3 fe                and    bl, 0xfe
 53d:   40 08 fb                or     bl, dil
 540:   d0 c0                   rol    al, 1
 542:   d0 c3                   rol    bl, 1
 544:   e2 cd                   loop   0x513
 546:   88 c7                   mov    bh, al
 548:   66 c1 c3 08             rol    bx, 0x8
 54c:   66 53                   push   bx
 54e:   8a 04 24                mov    al, BYTE PTR [rsp]
 551:   ff c4                   inc    esp
 553:   a2 ef be ad de 00 00 00 00      movabs ds:secret[30], al
 55c:   8a 04 24                mov    al, BYTE PTR [rsp]
 55f:   ff c4                   inc    esp
 561:   a2 ef be ad de 00 00 00 00      movabs ds:secret[31], al
 56a:   a0 ef be ad de 00 00 00 00      movabs al, ds:secret[23]
 573:   48 ff cc                dec    rsp
 576:   88 04 24                mov    BYTE PTR [rsp], al
 579:   a0 ef be ad de 00 00 00 00      movabs al, ds:secret[22]
 582:   48 ff cc                dec    rsp
 585:   88 04 24                mov    BYTE PTR [rsp], al
 588:   66 5b                   pop    bx
 58a:   b9 08 00 00 00          mov    ecx, 0x8
 58f:   48 31 c0                xor    rax, rax
 592:   86 f8                   xchg   al, bh
 594:   88 c2                   mov    dl, al
 596:   88 de                   mov    dh, bl
 598:   48 83 e0 01             and    rax, 0x1
 59c:   48 83 e3 01             and    rbx, 0x1
 5a0:   40 8a bc 43 8f 1b 60 00         mov    dil, BYTE PTR [rbx+rax*2+0x601b8f]
 5a8:   40 88 fe                mov    sil, dil
 5ab:   40 d0 ee                shr    sil, 1
 5ae:   88 d0                   mov    al, dl
 5b0:   24 fe                   and    al, 0xfe
 5b2:   40 08 f0                or     al, sil
 5b5:   40 80 e7 01             and    dil, 0x1
 5b9:   88 f3                   mov    bl, dh
 5bb:   80 e3 fe                and    bl, 0xfe
 5be:   40 08 fb                or     bl, dil
 5c1:   d0 c0                   rol    al, 1
 5c3:   d0 c3                   rol    bl, 1
 5c5:   e2 cd                   loop   0x594
 5c7:   88 c7                   mov    bh, al
 5c9:   66 c1 c3 08             rol    bx, 0x8
 5cd:   66 53                   push   bx
 5cf:   8a 04 24                mov    al, BYTE PTR [rsp]
 5d2:   ff c4                   inc    esp
 5d4:   a2 ef be ad de 00 00 00 00      movabs ds:secret[22], al
 5dd:   8a 04 24                mov    al, BYTE PTR [rsp]
 5e0:   ff c4                   inc    esp
 5e2:   a2 ef be ad de 00 00 00 00      movabs ds:secret[23], al
 5eb:   a0 ef be ad de 00 00 00 00      movabs al, ds:secret[17]
 5f4:   48 ff cc                dec    rsp
 5f7:   88 04 24                mov    BYTE PTR [rsp], al
 5fa:   a0 ef be ad de 00 00 00 00      movabs al, ds:secret[16]
 603:   48 ff cc                dec    rsp
 606:   88 04 24                mov    BYTE PTR [rsp], al
 609:   66 5b                   pop    bx
 60b:   b9 08 00 00 00          mov    ecx, 0x8
 610:   48 31 c0                xor    rax, rax
 613:   86 f8                   xchg   al, bh
 615:   88 c2                   mov    dl, al
 617:   88 de                   mov    dh, bl
 619:   48 83 e0 01             and    rax, 0x1
 61d:   48 83 e3 01             and    rbx, 0x1
 621:   40 8a bc 43 8f 1b 60 00         mov    dil, BYTE PTR [rbx+rax*2+0x601b8f]
 629:   40 88 fe                mov    sil, dil
 62c:   40 d0 ee                shr    sil, 1
 62f:   88 d0                   mov    al, dl
 631:   24 fe                   and    al, 0xfe
 633:   40 08 f0                or     al, sil
 636:   40 80 e7 01             and    dil, 0x1
 63a:   88 f3                   mov    bl, dh
 63c:   80 e3 fe                and    bl, 0xfe
 63f:   40 08 fb                or     bl, dil
 642:   d0 c0                   rol    al, 1
 644:   d0 c3                   rol    bl, 1
 646:   e2 cd                   loop   0x615
 648:   88 c7                   mov    bh, al
 64a:   66 c1 c3 08             rol    bx, 0x8
 64e:   66 53                   push   bx
 650:   8a 04 24                mov    al, BYTE PTR [rsp]
 653:   ff c4                   inc    esp
 655:   a2 ef be ad de 00 00 00 00      movabs ds:secret[16], al
 65e:   8a 04 24                mov    al, BYTE PTR [rsp]
 661:   ff c4                   inc    esp
 663:   a2 ef be ad de 00 00 00 00      movabs ds:secret[17], al
 66c:   a0 ef be ad de 00 00 00 00      movabs al, ds:secret[3]
 675:   48 ff cc                dec    rsp
 678:   88 04 24                mov    BYTE PTR [rsp], al
 67b:   a0 ef be ad de 00 00 00 00      movabs al, ds:secret[2]
 684:   48 ff cc                dec    rsp
 687:   88 04 24                mov    BYTE PTR [rsp], al
 68a:   66 5b                   pop    bx
 68c:   b9 08 00 00 00          mov    ecx, 0x8
 691:   48 31 c0                xor    rax, rax
 694:   86 f8                   xchg   al, bh
 696:   88 c2                   mov    dl, al
 698:   88 de                   mov    dh, bl
 69a:   48 83 e0 01             and    rax, 0x1
 69e:   48 83 e3 01             and    rbx, 0x1
 6a2:   40 8a bc 43 8f 1b 60 00         mov    dil, BYTE PTR [rbx+rax*2+0x601b8f]
 6aa:   40 88 fe                mov    sil, dil
 6ad:   40 d0 ee                shr    sil, 1
 6b0:   88 d0                   mov    al, dl
 6b2:   24 fe                   and    al, 0xfe
 6b4:   40 08 f0                or     al, sil
 6b7:   40 80 e7 01             and    dil, 0x1
 6bb:   88 f3                   mov    bl, dh
 6bd:   80 e3 fe                and    bl, 0xfe
 6c0:   40 08 fb                or     bl, dil
 6c3:   d0 c0                   rol    al, 1
 6c5:   d0 c3                   rol    bl, 1
 6c7:   e2 cd                   loop   0x696
 6c9:   88 c7                   mov    bh, al
 6cb:   66 c1 c3 08             rol    bx, 0x8
 6cf:   66 53                   push   bx
 6d1:   8a 04 24                mov    al, BYTE PTR [rsp]
 6d4:   ff c4                   inc    esp
 6d6:   a2 ef be ad de 00 00 00 00      movabs ds:secret[2], al
 6df:   8a 04 24                mov    al, BYTE PTR [rsp]
 6e2:   ff c4                   inc    esp
 6e4:   a2 ef be ad de 00 00 00 00      movabs ds:secret[3], al
 6ed:   a0 ef be ad de 00 00 00 00      movabs al, ds:secret[21]
 6f6:   48 ff cc                dec    rsp
 6f9:   88 04 24                mov    BYTE PTR [rsp], al
 6fc:   a0 ef be ad de 00 00 00 00      movabs al, ds:secret[20]
 705:   48 ff cc                dec    rsp
 708:   88 04 24                mov    BYTE PTR [rsp], al
 70b:   66 5b                   pop    bx
 70d:   b9 08 00 00 00          mov    ecx, 0x8
 712:   48 31 c0                xor    rax, rax
 715:   86 f8                   xchg   al, bh
 717:   88 c2                   mov    dl, al
 719:   88 de                   mov    dh, bl
 71b:   48 83 e0 01             and    rax, 0x1
 71f:   48 83 e3 01             and    rbx, 0x1
 723:   40 8a bc 43 8f 1b 60 00         mov    dil, BYTE PTR [rbx+rax*2+0x601b8f]
 72b:   40 88 fe                mov    sil, dil
 72e:   40 d0 ee                shr    sil, 1
 731:   88 d0                   mov    al, dl
 733:   24 fe                   and    al, 0xfe
 735:   40 08 f0                or     al, sil
 738:   40 80 e7 01             and    dil, 0x1
 73c:   88 f3                   mov    bl, dh
 73e:   80 e3 fe                and    bl, 0xfe
 741:   40 08 fb                or     bl, dil
 744:   d0 c0                   rol    al, 1
 746:   d0 c3                   rol    bl, 1
 748:   e2 cd                   loop   0x717
 74a:   88 c7                   mov    bh, al
 74c:   66 c1 c3 08             rol    bx, 0x8
 750:   66 53                   push   bx
 752:   8a 04 24                mov    al, BYTE PTR [rsp]
 755:   ff c4                   inc    esp
 757:   a2 ef be ad de 00 00 00 00      movabs ds:secret[20], al
 760:   8a 04 24                mov    al, BYTE PTR [rsp]
 763:   ff c4                   inc    esp
 765:   a2 ef be ad de 00 00 00 00      movabs ds:secret[21], al
 76e:   a0 ef be ad de 00 00 00 00      movabs al, ds:secret[11]
 777:   48 ff cc                dec    rsp
 77a:   88 04 24                mov    BYTE PTR [rsp], al
 77d:   a0 ef be ad de 00 00 00 00      movabs al, ds:secret[10]
 786:   48 ff cc                dec    rsp
 789:   88 04 24                mov    BYTE PTR [rsp], al
 78c:   66 5b                   pop    bx
 78e:   b9 08 00 00 00          mov    ecx, 0x8
 793:   48 31 c0                xor    rax, rax
 796:   86 f8                   xchg   al, bh
 798:   88 c2                   mov    dl, al
 79a:   88 de                   mov    dh, bl
 79c:   48 83 e0 01             and    rax, 0x1
 7a0:   48 83 e3 01             and    rbx, 0x1
 7a4:   40 8a bc 43 8f 1b 60 00         mov    dil, BYTE PTR [rbx+rax*2+0x601b8f]
 7ac:   40 88 fe                mov    sil, dil
 7af:   40 d0 ee                shr    sil, 1
 7b2:   88 d0                   mov    al, dl
 7b4:   24 fe                   and    al, 0xfe
 7b6:   40 08 f0                or     al, sil
 7b9:   40 80 e7 01             and    dil, 0x1
 7bd:   88 f3                   mov    bl, dh
 7bf:   80 e3 fe                and    bl, 0xfe
 7c2:   40 08 fb                or     bl, dil
 7c5:   d0 c0                   rol    al, 1
 7c7:   d0 c3                   rol    bl, 1
 7c9:   e2 cd                   loop   0x798
 7cb:   88 c7                   mov    bh, al
 7cd:   66 c1 c3 08             rol    bx, 0x8
 7d1:   66 53                   push   bx
 7d3:   8a 04 24                mov    al, BYTE PTR [rsp]
 7d6:   ff c4                   inc    esp
 7d8:   a2 ef be ad de 00 00 00 00      movabs ds:secret[10], al
 7e1:   8a 04 24                mov    al, BYTE PTR [rsp]
 7e4:   ff c4                   inc    esp
 7e6:   a2 ef be ad de 00 00 00 00      movabs ds:secret[11], al
 7ef:   a0 ef be ad de 00 00 00 00      movabs al, ds:secret[19]
 7f8:   48 ff cc                dec    rsp
 7fb:   88 04 24                mov    BYTE PTR [rsp], al
 7fe:   a0 ef be ad de 00 00 00 00      movabs al, ds:secret[18]
 807:   48 ff cc                dec    rsp
 80a:   88 04 24                mov    BYTE PTR [rsp], al
 80d:   66 5b                   pop    bx
 80f:   b9 08 00 00 00          mov    ecx, 0x8
 814:   48 31 c0                xor    rax, rax
 817:   86 f8                   xchg   al, bh
 819:   88 c2                   mov    dl, al
 81b:   88 de                   mov    dh, bl
 81d:   48 83 e0 01             and    rax, 0x1
 821:   48 83 e3 01             and    rbx, 0x1
 825:   40 8a bc 43 8f 1b 60 00         mov    dil, BYTE PTR [rbx+rax*2+0x601b8f]
 82d:   40 88 fe                mov    sil, dil
 830:   40 d0 ee                shr    sil, 1
 833:   88 d0                   mov    al, dl
 835:   24 fe                   and    al, 0xfe
 837:   40 08 f0                or     al, sil
 83a:   40 80 e7 01             and    dil, 0x1
 83e:   88 f3                   mov    bl, dh
 840:   80 e3 fe                and    bl, 0xfe
 843:   40 08 fb                or     bl, dil
 846:   d0 c0                   rol    al, 1
 848:   d0 c3                   rol    bl, 1
 84a:   e2 cd                   loop   0x819
 84c:   88 c7                   mov    bh, al
 84e:   66 c1 c3 08             rol    bx, 0x8
 852:   66 53                   push   bx
 854:   8a 04 24                mov    al, BYTE PTR [rsp]
 857:   ff c4                   inc    esp
 859:   a2 ef be ad de 00 00 00 00      movabs ds:secret[18], al
 862:   8a 04 24                mov    al, BYTE PTR [rsp]
 865:   ff c4                   inc    esp
 867:   a2 ef be ad de 00 00 00 00      movabs ds:secret[19], al
 870:   a0 ef be ad de 00 00 00 00      movabs al, ds:secret[25]
 879:   48 ff cc                dec    rsp
 87c:   88 04 24                mov    BYTE PTR [rsp], al
 87f:   a0 ef be ad de 00 00 00 00      movabs al, ds:secret[24]
 888:   48 ff cc                dec    rsp
 88b:   88 04 24                mov    BYTE PTR [rsp], al
 88e:   66 5b                   pop    bx
 890:   b9 08 00 00 00          mov    ecx, 0x8
 895:   48 31 c0                xor    rax, rax
 898:   86 f8                   xchg   al, bh
 89a:   88 c2                   mov    dl, al
 89c:   88 de                   mov    dh, bl
 89e:   48 83 e0 01             and    rax, 0x1
 8a2:   48 83 e3 01             and    rbx, 0x1
 8a6:   40 8a bc 43 8f 1b 60 00         mov    dil, BYTE PTR [rbx+rax*2+0x601b8f]
 8ae:   40 88 fe                mov    sil, dil
 8b1:   40 d0 ee                shr    sil, 1
 8b4:   88 d0                   mov    al, dl
 8b6:   24 fe                   and    al, 0xfe
 8b8:   40 08 f0                or     al, sil
 8bb:   40 80 e7 01             and    dil, 0x1
 8bf:   88 f3                   mov    bl, dh
 8c1:   80 e3 fe                and    bl, 0xfe
 8c4:   40 08 fb                or     bl, dil
 8c7:   d0 c0                   rol    al, 1
 8c9:   d0 c3                   rol    bl, 1
 8cb:   e2 cd                   loop   0x89a
 8cd:   88 c7                   mov    bh, al
 8cf:   66 c1 c3 08             rol    bx, 0x8
 8d3:   66 53                   push   bx
 8d5:   8a 04 24                mov    al, BYTE PTR [rsp]
 8d8:   ff c4                   inc    esp
 8da:   a2 ef be ad de 00 00 00 00      movabs ds:secret[24], al
 8e3:   8a 04 24                mov    al, BYTE PTR [rsp]
 8e6:   ff c4                   inc    esp
 8e8:   a2 ef be ad de 00 00 00 00      movabs ds:secret[25], al
 8f1:   a0 ef be ad de 00 00 00 00      movabs al, ds:secret[27]
 8fa:   48 ff cc                dec    rsp
 8fd:   88 04 24                mov    BYTE PTR [rsp], al
 900:   a0 ef be ad de 00 00 00 00      movabs al, ds:secret[26]
 909:   48 ff cc                dec    rsp
 90c:   88 04 24                mov    BYTE PTR [rsp], al
 90f:   66 5b                   pop    bx
 911:   b9 08 00 00 00          mov    ecx, 0x8
 916:   48 31 c0                xor    rax, rax
 919:   86 f8                   xchg   al, bh
 91b:   88 c2                   mov    dl, al
 91d:   88 de                   mov    dh, bl
 91f:   48 83 e0 01             and    rax, 0x1
 923:   48 83 e3 01             and    rbx, 0x1
 927:   40 8a bc 43 8f 1b 60 00         mov    dil, BYTE PTR [rbx+rax*2+0x601b8f]
 92f:   40 88 fe                mov    sil, dil
 932:   40 d0 ee                shr    sil, 1
 935:   88 d0                   mov    al, dl
 937:   24 fe                   and    al, 0xfe
 939:   40 08 f0                or     al, sil
 93c:   40 80 e7 01             and    dil, 0x1
 940:   88 f3                   mov    bl, dh
 942:   80 e3 fe                and    bl, 0xfe
 945:   40 08 fb                or     bl, dil
 948:   d0 c0                   rol    al, 1
 94a:   d0 c3                   rol    bl, 1
 94c:   e2 cd                   loop   0x91b
 94e:   88 c7                   mov    bh, al
 950:   66 c1 c3 08             rol    bx, 0x8
 954:   66 53                   push   bx
 956:   8a 04 24                mov    al, BYTE PTR [rsp]
 959:   ff c4                   inc    esp
 95b:   a2 ef be ad de 00 00 00 00      movabs ds:secret[26], al
 964:   8a 04 24                mov    al, BYTE PTR [rsp]
 967:   ff c4                   inc    esp
 969:   a2 ef be ad de 00 00 00 00      movabs ds:secret[27], al
 972:   a0 ef be ad de 00 00 00 00      movabs al, ds:secret[29]
 97b:   48 ff cc                dec    rsp
 97e:   88 04 24                mov    BYTE PTR [rsp], al
 981:   a0 ef be ad de 00 00 00 00      movabs al, ds:secret[28]
 98a:   48 ff cc                dec    rsp
 98d:   88 04 24                mov    BYTE PTR [rsp], al
 990:   66 5b                   pop    bx
 992:   b9 08 00 00 00          mov    ecx, 0x8
 997:   48 31 c0                xor    rax, rax
 99a:   86 f8                   xchg   al, bh
 99c:   88 c2                   mov    dl, al
 99e:   88 de                   mov    dh, bl
 9a0:   48 83 e0 01             and    rax, 0x1
 9a4:   48 83 e3 01             and    rbx, 0x1
 9a8:   40 8a bc 43 8f 1b 60 00         mov    dil, BYTE PTR [rbx+rax*2+0x601b8f]
 9b0:   40 88 fe                mov    sil, dil
 9b3:   40 d0 ee                shr    sil, 1
 9b6:   88 d0                   mov    al, dl
 9b8:   24 fe                   and    al, 0xfe
 9ba:   40 08 f0                or     al, sil
 9bd:   40 80 e7 01             and    dil, 0x1
 9c1:   88 f3                   mov    bl, dh
 9c3:   80 e3 fe                and    bl, 0xfe
 9c6:   40 08 fb                or     bl, dil
 9c9:   d0 c0                   rol    al, 1
 9cb:   d0 c3                   rol    bl, 1
 9cd:   e2 cd                   loop   0x99c
 9cf:   88 c7                   mov    bh, al
 9d1:   66 c1 c3 08             rol    bx, 0x8
 9d5:   66 53                   push   bx
 9d7:   8a 04 24                mov    al, BYTE PTR [rsp]
 9da:   ff c4                   inc    esp
 9dc:   a2 ef be ad de 00 00 00 00      movabs ds:secret[28], al
 9e5:   8a 04 24                mov    al, BYTE PTR [rsp]
 9e8:   ff c4                   inc    esp
 9ea:   a2 ef be ad de 00 00 00 00      movabs ds:secret[29], al
 9f3:   a0 ef be ad de 00 00 00 00      movabs al, ds:secret[13]
 9fc:   48 ff cc                dec    rsp
 9ff:   88 04 24                mov    BYTE PTR [rsp], al
 a02:   a0 ef be ad de 00 00 00 00      movabs al, ds:secret[12]
 a0b:   48 ff cc                dec    rsp
 a0e:   88 04 24                mov    BYTE PTR [rsp], al
 a11:   66 5b                   pop    bx
 a13:   b9 08 00 00 00          mov    ecx, 0x8
 a18:   48 31 c0                xor    rax, rax
 a1b:   86 f8                   xchg   al, bh
 a1d:   88 c2                   mov    dl, al
 a1f:   88 de                   mov    dh, bl
 a21:   48 83 e0 01             and    rax, 0x1
 a25:   48 83 e3 01             and    rbx, 0x1
 a29:   40 8a bc 43 8f 1b 60 00         mov    dil, BYTE PTR [rbx+rax*2+0x601b8f]
 a31:   40 88 fe                mov    sil, dil
 a34:   40 d0 ee                shr    sil, 1
 a37:   88 d0                   mov    al, dl
 a39:   24 fe                   and    al, 0xfe
 a3b:   40 08 f0                or     al, sil
 a3e:   40 80 e7 01             and    dil, 0x1
 a42:   88 f3                   mov    bl, dh
 a44:   80 e3 fe                and    bl, 0xfe
 a47:   40 08 fb                or     bl, dil
 a4a:   d0 c0                   rol    al, 1
 a4c:   d0 c3                   rol    bl, 1
 a4e:   e2 cd                   loop   0xa1d
 a50:   88 c7                   mov    bh, al
 a52:   66 c1 c3 08             rol    bx, 0x8
 a56:   66 53                   push   bx
 a58:   8a 04 24                mov    al, BYTE PTR [rsp]
 a5b:   ff c4                   inc    esp
 a5d:   a2 ef be ad de 00 00 00 00      movabs ds:secret[12], al
 a66:   8a 04 24                mov    al, BYTE PTR [rsp]
 a69:   ff c4                   inc    esp
 a6b:   a2 ef be ad de 00 00 00 00      movabs ds:secret[13], al
 a74:   a0 ef be ad de 00 00 00 00      movabs al, ds:secret[9]
 a7d:   48 ff cc                dec    rsp
 a80:   88 04 24                mov    BYTE PTR [rsp], al
 a83:   a0 ef be ad de 00 00 00 00      movabs al, ds:secret[8]
 a8c:   48 ff cc                dec    rsp
 a8f:   88 04 24                mov    BYTE PTR [rsp], al
 a92:   66 5b                   pop    bx
 a94:   b9 08 00 00 00          mov    ecx, 0x8
 a99:   48 31 c0                xor    rax, rax
 a9c:   86 f8                   xchg   al, bh
 a9e:   88 c2                   mov    dl, al
 aa0:   88 de                   mov    dh, bl
 aa2:   48 83 e0 01             and    rax, 0x1
 aa6:   48 83 e3 01             and    rbx, 0x1
 aaa:   40 8a bc 43 8f 1b 60 00         mov    dil, BYTE PTR [rbx+rax*2+0x601b8f]
 ab2:   40 88 fe                mov    sil, dil
 ab5:   40 d0 ee                shr    sil, 1
 ab8:   88 d0                   mov    al, dl
 aba:   24 fe                   and    al, 0xfe
 abc:   40 08 f0                or     al, sil
 abf:   40 80 e7 01             and    dil, 0x1
 ac3:   88 f3                   mov    bl, dh
 ac5:   80 e3 fe                and    bl, 0xfe
 ac8:   40 08 fb                or     bl, dil
 acb:   d0 c0                   rol    al, 1
 acd:   d0 c3                   rol    bl, 1
 acf:   e2 cd                   loop   0xa9e
 ad1:   88 c7                   mov    bh, al
 ad3:   66 c1 c3 08             rol    bx, 0x8
 ad7:   66 53                   push   bx
 ad9:   8a 04 24                mov    al, BYTE PTR [rsp]
 adc:   ff c4                   inc    esp
 ade:   a2 ef be ad de 00 00 00 00      movabs ds:secret[8], al
 ae7:   8a 04 24                mov    al, BYTE PTR [rsp]
 aea:   ff c4                   inc    esp
 aec:   a2 ef be ad de 00 00 00 00      movabs ds:secret[9], al
 af5:   a0 ef be ad de 00 00 00 00      movabs al, ds:secret[7]
 afe:   48 ff cc                dec    rsp
 b01:   88 04 24                mov    BYTE PTR [rsp], al
 b04:   a0 ef be ad de 00 00 00 00      movabs al, ds:secret[6]
 b0d:   48 ff cc                dec    rsp
 b10:   88 04 24                mov    BYTE PTR [rsp], al
 b13:   66 5b                   pop    bx
 b15:   b9 08 00 00 00          mov    ecx, 0x8
 b1a:   48 31 c0                xor    rax, rax
 b1d:   86 f8                   xchg   al, bh
 b1f:   88 c2                   mov    dl, al
 b21:   88 de                   mov    dh, bl
 b23:   48 83 e0 01             and    rax, 0x1
 b27:   48 83 e3 01             and    rbx, 0x1
 b2b:   40 8a bc 43 8f 1b 60 00         mov    dil, BYTE PTR [rbx+rax*2+0x601b8f]
 b33:   40 88 fe                mov    sil, dil
 b36:   40 d0 ee                shr    sil, 1
 b39:   88 d0                   mov    al, dl
 b3b:   24 fe                   and    al, 0xfe
 b3d:   40 08 f0                or     al, sil
 b40:   40 80 e7 01             and    dil, 0x1
 b44:   88 f3                   mov    bl, dh
 b46:   80 e3 fe                and    bl, 0xfe
 b49:   40 08 fb                or     bl, dil
 b4c:   d0 c0                   rol    al, 1
 b4e:   d0 c3                   rol    bl, 1
 b50:   e2 cd                   loop   0xb1f
 b52:   88 c7                   mov    bh, al
 b54:   66 c1 c3 08             rol    bx, 0x8
 b58:   66 53                   push   bx
 b5a:   8a 04 24                mov    al, BYTE PTR [rsp]
 b5d:   ff c4                   inc    esp
 b5f:   a2 ef be ad de 00 00 00 00      movabs ds:secret[6], al
 b68:   8a 04 24                mov    al, BYTE PTR [rsp]
 b6b:   ff c4                   inc    esp
 b6d:   a2 ef be ad de 00 00 00 00      movabs ds:secret[7], al


[+] <6B5D9-<-9-D-5-B-6HA3-H-3-A4F=-4-=-F7@1LIC-7-C-I-L-1-@G?0NMK-G-K-M-N-0-?>2JE;8->-8-;-E-J-2HI&-I-HJK&-K-J01&-1-0<=&-=-<LM&-M-LFG&-G-F67&-7-645&-5-4@A&-A-@>?&-?->89&-9-8DE&-E-DBC&-C-BNO&-O-N23&-3-2:;&-;-:#2#B#F#4#0#8#>#D#@#H#L#N#:#J#6#<!
   0:   a0 ef be ad de 00 00 00 00      movabs al, ds:secret[12]
   9:   48 ff cc                dec    rsp
   c:   88 04 24                mov    BYTE PTR [rsp], al
   f:   a0 ef be ad de 00 00 00 00      movabs al, ds:secret[6]
  18:   48 ff cc                dec    rsp
  1b:   88 04 24                mov    BYTE PTR [rsp], al
  1e:   a0 ef be ad de 00 00 00 00      movabs al, ds:secret[18]
  27:   48 ff cc                dec    rsp
  2a:   88 04 24                mov    BYTE PTR [rsp], al
  2d:   a0 ef be ad de 00 00 00 00      movabs al, ds:secret[5]
  36:   48 ff cc                dec    rsp
  39:   88 04 24                mov    BYTE PTR [rsp], al
  3c:   a0 ef be ad de 00 00 00 00      movabs al, ds:secret[20]
  45:   48 ff cc                dec    rsp
  48:   88 04 24                mov    BYTE PTR [rsp], al
  4b:   a0 ef be ad de 00 00 00 00      movabs al, ds:secret[9]
  54:   48 ff cc                dec    rsp
  57:   88 04 24                mov    BYTE PTR [rsp], al
  5a:   8a 04 24                mov    al, BYTE PTR [rsp]
  5d:   ff c4                   inc    esp
  5f:   a2 ef be ad de 00 00 00 00      movabs ds:secret[12], al
  68:   8a 04 24                mov    al, BYTE PTR [rsp]
  6b:   ff c4                   inc    esp
  6d:   a2 ef be ad de 00 00 00 00      movabs ds:secret[9], al
  76:   8a 04 24                mov    al, BYTE PTR [rsp]
  79:   ff c4                   inc    esp
  7b:   a2 ef be ad de 00 00 00 00      movabs ds:secret[20], al
  84:   8a 04 24                mov    al, BYTE PTR [rsp]
  87:   ff c4                   inc    esp
  89:   a2 ef be ad de 00 00 00 00      movabs ds:secret[5], al
  92:   8a 04 24                mov    al, BYTE PTR [rsp]
  95:   ff c4                   inc    esp
  97:   a2 ef be ad de 00 00 00 00      movabs ds:secret[18], al
  a0:   8a 04 24                mov    al, BYTE PTR [rsp]
  a3:   ff c4                   inc    esp
  a5:   a2 ef be ad de 00 00 00 00      movabs ds:secret[6], al
  ae:   a0 ef be ad de 00 00 00 00      movabs al, ds:secret[24]
  b7:   48 ff cc                dec    rsp
  ba:   88 04 24                mov    BYTE PTR [rsp], al
  bd:   a0 ef be ad de 00 00 00 00      movabs al, ds:secret[17]
  c6:   48 ff cc                dec    rsp
  c9:   88 04 24                mov    BYTE PTR [rsp], al
  cc:   a0 ef be ad de 00 00 00 00      movabs al, ds:secret[3]
  d5:   48 ff cc                dec    rsp
  d8:   88 04 24                mov    BYTE PTR [rsp], al
  db:   8a 04 24                mov    al, BYTE PTR [rsp]
  de:   ff c4                   inc    esp
  e0:   a2 ef be ad de 00 00 00 00      movabs ds:secret[24], al
  e9:   8a 04 24                mov    al, BYTE PTR [rsp]
  ec:   ff c4                   inc    esp
  ee:   a2 ef be ad de 00 00 00 00      movabs ds:secret[3], al
  f7:   8a 04 24                mov    al, BYTE PTR [rsp]
  fa:   ff c4                   inc    esp
  fc:   a2 ef be ad de 00 00 00 00      movabs ds:secret[17], al
 105:   a0 ef be ad de 00 00 00 00      movabs al, ds:secret[4]
 10e:   48 ff cc                dec    rsp
 111:   88 04 24                mov    BYTE PTR [rsp], al
 114:   a0 ef be ad de 00 00 00 00      movabs al, ds:secret[22]
 11d:   48 ff cc                dec    rsp
 120:   88 04 24                mov    BYTE PTR [rsp], al
 123:   a0 ef be ad de 00 00 00 00      movabs al, ds:secret[13]
 12c:   48 ff cc                dec    rsp
 12f:   88 04 24                mov    BYTE PTR [rsp], al
 132:   8a 04 24                mov    al, BYTE PTR [rsp]
 135:   ff c4                   inc    esp
 137:   a2 ef be ad de 00 00 00 00      movabs ds:secret[4], al
 140:   8a 04 24                mov    al, BYTE PTR [rsp]
 143:   ff c4                   inc    esp
 145:   a2 ef be ad de 00 00 00 00      movabs ds:secret[13], al
 14e:   8a 04 24                mov    al, BYTE PTR [rsp]
 151:   ff c4                   inc    esp
 153:   a2 ef be ad de 00 00 00 00      movabs ds:secret[22], al
 15c:   a0 ef be ad de 00 00 00 00      movabs al, ds:secret[7]
 165:   48 ff cc                dec    rsp
 168:   88 04 24                mov    BYTE PTR [rsp], al
 16b:   a0 ef be ad de 00 00 00 00      movabs al, ds:secret[16]
 174:   48 ff cc                dec    rsp
 177:   88 04 24                mov    BYTE PTR [rsp], al
 17a:   a0 ef be ad de 00 00 00 00      movabs al, ds:secret[1]
 183:   48 ff cc                dec    rsp
 186:   88 04 24                mov    BYTE PTR [rsp], al
 189:   a0 ef be ad de 00 00 00 00      movabs al, ds:secret[28]
 192:   48 ff cc                dec    rsp
 195:   88 04 24                mov    BYTE PTR [rsp], al
 198:   a0 ef be ad de 00 00 00 00      movabs al, ds:secret[25]
 1a1:   48 ff cc                dec    rsp
 1a4:   88 04 24                mov    BYTE PTR [rsp], al
 1a7:   a0 ef be ad de 00 00 00 00      movabs al, ds:secret[19]
 1b0:   48 ff cc                dec    rsp
 1b3:   88 04 24                mov    BYTE PTR [rsp], al
 1b6:   8a 04 24                mov    al, BYTE PTR [rsp]
 1b9:   ff c4                   inc    esp
 1bb:   a2 ef be ad de 00 00 00 00      movabs ds:secret[7], al
 1c4:   8a 04 24                mov    al, BYTE PTR [rsp]
 1c7:   ff c4                   inc    esp
 1c9:   a2 ef be ad de 00 00 00 00      movabs ds:secret[19], al
 1d2:   8a 04 24                mov    al, BYTE PTR [rsp]
 1d5:   ff c4                   inc    esp
 1d7:   a2 ef be ad de 00 00 00 00      movabs ds:secret[25], al
 1e0:   8a 04 24                mov    al, BYTE PTR [rsp]
 1e3:   ff c4                   inc    esp
 1e5:   a2 ef be ad de 00 00 00 00      movabs ds:secret[28], al
 1ee:   8a 04 24                mov    al, BYTE PTR [rsp]
 1f1:   ff c4                   inc    esp
 1f3:   a2 ef be ad de 00 00 00 00      movabs ds:secret[1], al
 1fc:   8a 04 24                mov    al, BYTE PTR [rsp]
 1ff:   ff c4                   inc    esp
 201:   a2 ef be ad de 00 00 00 00      movabs ds:secret[16], al
 20a:   a0 ef be ad de 00 00 00 00      movabs al, ds:secret[23]
 213:   48 ff cc                dec    rsp
 216:   88 04 24                mov    BYTE PTR [rsp], al
 219:   a0 ef be ad de 00 00 00 00      movabs al, ds:secret[15]
 222:   48 ff cc                dec    rsp
 225:   88 04 24                mov    BYTE PTR [rsp], al
 228:   a0 ef be ad de 00 00 00 00      movabs al, ds:secret[0]
 231:   48 ff cc                dec    rsp
 234:   88 04 24                mov    BYTE PTR [rsp], al
 237:   a0 ef be ad de 00 00 00 00      movabs al, ds:secret[30]
 240:   48 ff cc                dec    rsp
 243:   88 04 24                mov    BYTE PTR [rsp], al
 246:   a0 ef be ad de 00 00 00 00      movabs al, ds:secret[29]
 24f:   48 ff cc                dec    rsp
 252:   88 04 24                mov    BYTE PTR [rsp], al
 255:   a0 ef be ad de 00 00 00 00      movabs al, ds:secret[27]
 25e:   48 ff cc                dec    rsp
 261:   88 04 24                mov    BYTE PTR [rsp], al
 264:   8a 04 24                mov    al, BYTE PTR [rsp]
 267:   ff c4                   inc    esp
 269:   a2 ef be ad de 00 00 00 00      movabs ds:secret[23], al
 272:   8a 04 24                mov    al, BYTE PTR [rsp]
 275:   ff c4                   inc    esp
 277:   a2 ef be ad de 00 00 00 00      movabs ds:secret[27], al
 280:   8a 04 24                mov    al, BYTE PTR [rsp]
 283:   ff c4                   inc    esp
 285:   a2 ef be ad de 00 00 00 00      movabs ds:secret[29], al
 28e:   8a 04 24                mov    al, BYTE PTR [rsp]
 291:   ff c4                   inc    esp
 293:   a2 ef be ad de 00 00 00 00      movabs ds:secret[30], al
 29c:   8a 04 24                mov    al, BYTE PTR [rsp]
 29f:   ff c4                   inc    esp
 2a1:   a2 ef be ad de 00 00 00 00      movabs ds:secret[0], al
 2aa:   8a 04 24                mov    al, BYTE PTR [rsp]
 2ad:   ff c4                   inc    esp
 2af:   a2 ef be ad de 00 00 00 00      movabs ds:secret[15], al
 2b8:   a0 ef be ad de 00 00 00 00      movabs al, ds:secret[14]
 2c1:   48 ff cc                dec    rsp
 2c4:   88 04 24                mov    BYTE PTR [rsp], al
 2c7:   a0 ef be ad de 00 00 00 00      movabs al, ds:secret[2]
 2d0:   48 ff cc                dec    rsp
 2d3:   88 04 24                mov    BYTE PTR [rsp], al
 2d6:   a0 ef be ad de 00 00 00 00      movabs al, ds:secret[26]
 2df:   48 ff cc                dec    rsp
 2e2:   88 04 24                mov    BYTE PTR [rsp], al
 2e5:   a0 ef be ad de 00 00 00 00      movabs al, ds:secret[21]
 2ee:   48 ff cc                dec    rsp
 2f1:   88 04 24                mov    BYTE PTR [rsp], al
 2f4:   a0 ef be ad de 00 00 00 00      movabs al, ds:secret[11]
 2fd:   48 ff cc                dec    rsp
 300:   88 04 24                mov    BYTE PTR [rsp], al
 303:   a0 ef be ad de 00 00 00 00      movabs al, ds:secret[8]
 30c:   48 ff cc                dec    rsp
 30f:   88 04 24                mov    BYTE PTR [rsp], al
 312:   8a 04 24                mov    al, BYTE PTR [rsp]
 315:   ff c4                   inc    esp
 317:   a2 ef be ad de 00 00 00 00      movabs ds:secret[14], al
 320:   8a 04 24                mov    al, BYTE PTR [rsp]
 323:   ff c4                   inc    esp
 325:   a2 ef be ad de 00 00 00 00      movabs ds:secret[8], al
 32e:   8a 04 24                mov    al, BYTE PTR [rsp]
 331:   ff c4                   inc    esp
 333:   a2 ef be ad de 00 00 00 00      movabs ds:secret[11], al
 33c:   8a 04 24                mov    al, BYTE PTR [rsp]
 33f:   ff c4                   inc    esp
 341:   a2 ef be ad de 00 00 00 00      movabs ds:secret[21], al
 34a:   8a 04 24                mov    al, BYTE PTR [rsp]
 34d:   ff c4                   inc    esp
 34f:   a2 ef be ad de 00 00 00 00      movabs ds:secret[26], al
 358:   8a 04 24                mov    al, BYTE PTR [rsp]
 35b:   ff c4                   inc    esp
 35d:   a2 ef be ad de 00 00 00 00      movabs ds:secret[2], al
 366:   a0 ef be ad de 00 00 00 00      movabs al, ds:secret[24]
 36f:   48 ff cc                dec    rsp
 372:   88 04 24                mov    BYTE PTR [rsp], al
 375:   a0 ef be ad de 00 00 00 00      movabs al, ds:secret[25]
 37e:   48 ff cc                dec    rsp
 381:   88 04 24                mov    BYTE PTR [rsp], al
 384:   66 5b                   pop    bx
 386:   b9 08 00 00 00          mov    ecx, 0x8
 38b:   48 31 c0                xor    rax, rax
 38e:   86 f8                   xchg   al, bh
 390:   88 c2                   mov    dl, al
 392:   88 de                   mov    dh, bl
 394:   48 83 e0 01             and    rax, 0x1
 398:   48 83 e3 01             and    rbx, 0x1
 39c:   40 8a bc 43 8f 1b 60 00         mov    dil, BYTE PTR [rbx+rax*2+0x601b8f]
 3a4:   40 88 fe                mov    sil, dil
 3a7:   40 d0 ee                shr    sil, 1
 3aa:   88 d0                   mov    al, dl
 3ac:   24 fe                   and    al, 0xfe
 3ae:   40 08 f0                or     al, sil
 3b1:   40 80 e7 01             and    dil, 0x1
 3b5:   88 f3                   mov    bl, dh
 3b7:   80 e3 fe                and    bl, 0xfe
 3ba:   40 08 fb                or     bl, dil
 3bd:   d0 c0                   rol    al, 1
 3bf:   d0 c3                   rol    bl, 1
 3c1:   e2 cd                   loop   0x390
 3c3:   88 c7                   mov    bh, al
 3c5:   66 c1 c3 08             rol    bx, 0x8
 3c9:   66 53                   push   bx
 3cb:   8a 04 24                mov    al, BYTE PTR [rsp]
 3ce:   ff c4                   inc    esp
 3d0:   a2 ef be ad de 00 00 00 00      movabs ds:secret[25], al
 3d9:   8a 04 24                mov    al, BYTE PTR [rsp]
 3dc:   ff c4                   inc    esp
 3de:   a2 ef be ad de 00 00 00 00      movabs ds:secret[24], al
 3e7:   a0 ef be ad de 00 00 00 00      movabs al, ds:secret[26]
 3f0:   48 ff cc                dec    rsp
 3f3:   88 04 24                mov    BYTE PTR [rsp], al
 3f6:   a0 ef be ad de 00 00 00 00      movabs al, ds:secret[27]
 3ff:   48 ff cc                dec    rsp
 402:   88 04 24                mov    BYTE PTR [rsp], al
 405:   66 5b                   pop    bx
 407:   b9 08 00 00 00          mov    ecx, 0x8
 40c:   48 31 c0                xor    rax, rax
 40f:   86 f8                   xchg   al, bh
 411:   88 c2                   mov    dl, al
 413:   88 de                   mov    dh, bl
 415:   48 83 e0 01             and    rax, 0x1
 419:   48 83 e3 01             and    rbx, 0x1
 41d:   40 8a bc 43 8f 1b 60 00         mov    dil, BYTE PTR [rbx+rax*2+0x601b8f]
 425:   40 88 fe                mov    sil, dil
 428:   40 d0 ee                shr    sil, 1
 42b:   88 d0                   mov    al, dl
 42d:   24 fe                   and    al, 0xfe
 42f:   40 08 f0                or     al, sil
 432:   40 80 e7 01             and    dil, 0x1
 436:   88 f3                   mov    bl, dh
 438:   80 e3 fe                and    bl, 0xfe
 43b:   40 08 fb                or     bl, dil
 43e:   d0 c0                   rol    al, 1
 440:   d0 c3                   rol    bl, 1
 442:   e2 cd                   loop   0x411
 444:   88 c7                   mov    bh, al
 446:   66 c1 c3 08             rol    bx, 0x8
 44a:   66 53                   push   bx
 44c:   8a 04 24                mov    al, BYTE PTR [rsp]
 44f:   ff c4                   inc    esp
 451:   a2 ef be ad de 00 00 00 00      movabs ds:secret[27], al
 45a:   8a 04 24                mov    al, BYTE PTR [rsp]
 45d:   ff c4                   inc    esp
 45f:   a2 ef be ad de 00 00 00 00      movabs ds:secret[26], al
 468:   a0 ef be ad de 00 00 00 00      movabs al, ds:secret[0]
 471:   48 ff cc                dec    rsp
 474:   88 04 24                mov    BYTE PTR [rsp], al
 477:   a0 ef be ad de 00 00 00 00      movabs al, ds:secret[1]
 480:   48 ff cc                dec    rsp
 483:   88 04 24                mov    BYTE PTR [rsp], al
 486:   66 5b                   pop    bx
 488:   b9 08 00 00 00          mov    ecx, 0x8
 48d:   48 31 c0                xor    rax, rax
 490:   86 f8                   xchg   al, bh
 492:   88 c2                   mov    dl, al
 494:   88 de                   mov    dh, bl
 496:   48 83 e0 01             and    rax, 0x1
 49a:   48 83 e3 01             and    rbx, 0x1
 49e:   40 8a bc 43 8f 1b 60 00         mov    dil, BYTE PTR [rbx+rax*2+0x601b8f]
 4a6:   40 88 fe                mov    sil, dil
 4a9:   40 d0 ee                shr    sil, 1
 4ac:   88 d0                   mov    al, dl
 4ae:   24 fe                   and    al, 0xfe
 4b0:   40 08 f0                or     al, sil
 4b3:   40 80 e7 01             and    dil, 0x1
 4b7:   88 f3                   mov    bl, dh
 4b9:   80 e3 fe                and    bl, 0xfe
 4bc:   40 08 fb                or     bl, dil
 4bf:   d0 c0                   rol    al, 1
 4c1:   d0 c3                   rol    bl, 1
 4c3:   e2 cd                   loop   0x492
 4c5:   88 c7                   mov    bh, al
 4c7:   66 c1 c3 08             rol    bx, 0x8
 4cb:   66 53                   push   bx
 4cd:   8a 04 24                mov    al, BYTE PTR [rsp]
 4d0:   ff c4                   inc    esp
 4d2:   a2 ef be ad de 00 00 00 00      movabs ds:secret[1], al
 4db:   8a 04 24                mov    al, BYTE PTR [rsp]
 4de:   ff c4                   inc    esp
 4e0:   a2 ef be ad de 00 00 00 00      movabs ds:secret[0], al
 4e9:   a0 ef be ad de 00 00 00 00      movabs al, ds:secret[12]
 4f2:   48 ff cc                dec    rsp
 4f5:   88 04 24                mov    BYTE PTR [rsp], al
 4f8:   a0 ef be ad de 00 00 00 00      movabs al, ds:secret[13]
 501:   48 ff cc                dec    rsp
 504:   88 04 24                mov    BYTE PTR [rsp], al
 507:   66 5b                   pop    bx
 509:   b9 08 00 00 00          mov    ecx, 0x8
 50e:   48 31 c0                xor    rax, rax
 511:   86 f8                   xchg   al, bh
 513:   88 c2                   mov    dl, al
 515:   88 de                   mov    dh, bl
 517:   48 83 e0 01             and    rax, 0x1
 51b:   48 83 e3 01             and    rbx, 0x1
 51f:   40 8a bc 43 8f 1b 60 00         mov    dil, BYTE PTR [rbx+rax*2+0x601b8f]
 527:   40 88 fe                mov    sil, dil
 52a:   40 d0 ee                shr    sil, 1
 52d:   88 d0                   mov    al, dl
 52f:   24 fe                   and    al, 0xfe
 531:   40 08 f0                or     al, sil
 534:   40 80 e7 01             and    dil, 0x1
 538:   88 f3                   mov    bl, dh
 53a:   80 e3 fe                and    bl, 0xfe
 53d:   40 08 fb                or     bl, dil
 540:   d0 c0                   rol    al, 1
 542:   d0 c3                   rol    bl, 1
 544:   e2 cd                   loop   0x513
 546:   88 c7                   mov    bh, al
 548:   66 c1 c3 08             rol    bx, 0x8
 54c:   66 53                   push   bx
 54e:   8a 04 24                mov    al, BYTE PTR [rsp]
 551:   ff c4                   inc    esp
 553:   a2 ef be ad de 00 00 00 00      movabs ds:secret[13], al
 55c:   8a 04 24                mov    al, BYTE PTR [rsp]
 55f:   ff c4                   inc    esp
 561:   a2 ef be ad de 00 00 00 00      movabs ds:secret[12], al
 56a:   a0 ef be ad de 00 00 00 00      movabs al, ds:secret[28]
 573:   48 ff cc                dec    rsp
 576:   88 04 24                mov    BYTE PTR [rsp], al
 579:   a0 ef be ad de 00 00 00 00      movabs al, ds:secret[29]
 582:   48 ff cc                dec    rsp
 585:   88 04 24                mov    BYTE PTR [rsp], al
 588:   66 5b                   pop    bx
 58a:   b9 08 00 00 00          mov    ecx, 0x8
 58f:   48 31 c0                xor    rax, rax
 592:   86 f8                   xchg   al, bh
 594:   88 c2                   mov    dl, al
 596:   88 de                   mov    dh, bl
 598:   48 83 e0 01             and    rax, 0x1
 59c:   48 83 e3 01             and    rbx, 0x1
 5a0:   40 8a bc 43 8f 1b 60 00         mov    dil, BYTE PTR [rbx+rax*2+0x601b8f]
 5a8:   40 88 fe                mov    sil, dil
 5ab:   40 d0 ee                shr    sil, 1
 5ae:   88 d0                   mov    al, dl
 5b0:   24 fe                   and    al, 0xfe
 5b2:   40 08 f0                or     al, sil
 5b5:   40 80 e7 01             and    dil, 0x1
 5b9:   88 f3                   mov    bl, dh
 5bb:   80 e3 fe                and    bl, 0xfe
 5be:   40 08 fb                or     bl, dil
 5c1:   d0 c0                   rol    al, 1
 5c3:   d0 c3                   rol    bl, 1
 5c5:   e2 cd                   loop   0x594
 5c7:   88 c7                   mov    bh, al
 5c9:   66 c1 c3 08             rol    bx, 0x8
 5cd:   66 53                   push   bx
 5cf:   8a 04 24                mov    al, BYTE PTR [rsp]
 5d2:   ff c4                   inc    esp
 5d4:   a2 ef be ad de 00 00 00 00      movabs ds:secret[29], al
 5dd:   8a 04 24                mov    al, BYTE PTR [rsp]
 5e0:   ff c4                   inc    esp
 5e2:   a2 ef be ad de 00 00 00 00      movabs ds:secret[28], al
 5eb:   a0 ef be ad de 00 00 00 00      movabs al, ds:secret[22]
 5f4:   48 ff cc                dec    rsp
 5f7:   88 04 24                mov    BYTE PTR [rsp], al
 5fa:   a0 ef be ad de 00 00 00 00      movabs al, ds:secret[23]
 603:   48 ff cc                dec    rsp
 606:   88 04 24                mov    BYTE PTR [rsp], al
 609:   66 5b                   pop    bx
 60b:   b9 08 00 00 00          mov    ecx, 0x8
 610:   48 31 c0                xor    rax, rax
 613:   86 f8                   xchg   al, bh
 615:   88 c2                   mov    dl, al
 617:   88 de                   mov    dh, bl
 619:   48 83 e0 01             and    rax, 0x1
 61d:   48 83 e3 01             and    rbx, 0x1
 621:   40 8a bc 43 8f 1b 60 00         mov    dil, BYTE PTR [rbx+rax*2+0x601b8f]
 629:   40 88 fe                mov    sil, dil
 62c:   40 d0 ee                shr    sil, 1
 62f:   88 d0                   mov    al, dl
 631:   24 fe                   and    al, 0xfe
 633:   40 08 f0                or     al, sil
 636:   40 80 e7 01             and    dil, 0x1
 63a:   88 f3                   mov    bl, dh
 63c:   80 e3 fe                and    bl, 0xfe
 63f:   40 08 fb                or     bl, dil
 642:   d0 c0                   rol    al, 1
 644:   d0 c3                   rol    bl, 1
 646:   e2 cd                   loop   0x615
 648:   88 c7                   mov    bh, al
 64a:   66 c1 c3 08             rol    bx, 0x8
 64e:   66 53                   push   bx
 650:   8a 04 24                mov    al, BYTE PTR [rsp]
 653:   ff c4                   inc    esp
 655:   a2 ef be ad de 00 00 00 00      movabs ds:secret[23], al
 65e:   8a 04 24                mov    al, BYTE PTR [rsp]
 661:   ff c4                   inc    esp
 663:   a2 ef be ad de 00 00 00 00      movabs ds:secret[22], al
 66c:   a0 ef be ad de 00 00 00 00      movabs al, ds:secret[6]
 675:   48 ff cc                dec    rsp
 678:   88 04 24                mov    BYTE PTR [rsp], al
 67b:   a0 ef be ad de 00 00 00 00      movabs al, ds:secret[7]
 684:   48 ff cc                dec    rsp
 687:   88 04 24                mov    BYTE PTR [rsp], al
 68a:   66 5b                   pop    bx
 68c:   b9 08 00 00 00          mov    ecx, 0x8
 691:   48 31 c0                xor    rax, rax
 694:   86 f8                   xchg   al, bh
 696:   88 c2                   mov    dl, al
 698:   88 de                   mov    dh, bl
 69a:   48 83 e0 01             and    rax, 0x1
 69e:   48 83 e3 01             and    rbx, 0x1
 6a2:   40 8a bc 43 8f 1b 60 00         mov    dil, BYTE PTR [rbx+rax*2+0x601b8f]
 6aa:   40 88 fe                mov    sil, dil
 6ad:   40 d0 ee                shr    sil, 1
 6b0:   88 d0                   mov    al, dl
 6b2:   24 fe                   and    al, 0xfe
 6b4:   40 08 f0                or     al, sil
 6b7:   40 80 e7 01             and    dil, 0x1
 6bb:   88 f3                   mov    bl, dh
 6bd:   80 e3 fe                and    bl, 0xfe
 6c0:   40 08 fb                or     bl, dil
 6c3:   d0 c0                   rol    al, 1
 6c5:   d0 c3                   rol    bl, 1
 6c7:   e2 cd                   loop   0x696
 6c9:   88 c7                   mov    bh, al
 6cb:   66 c1 c3 08             rol    bx, 0x8
 6cf:   66 53                   push   bx
 6d1:   8a 04 24                mov    al, BYTE PTR [rsp]
 6d4:   ff c4                   inc    esp
 6d6:   a2 ef be ad de 00 00 00 00      movabs ds:secret[7], al
 6df:   8a 04 24                mov    al, BYTE PTR [rsp]
 6e2:   ff c4                   inc    esp
 6e4:   a2 ef be ad de 00 00 00 00      movabs ds:secret[6], al
 6ed:   a0 ef be ad de 00 00 00 00      movabs al, ds:secret[4]
 6f6:   48 ff cc                dec    rsp
 6f9:   88 04 24                mov    BYTE PTR [rsp], al
 6fc:   a0 ef be ad de 00 00 00 00      movabs al, ds:secret[5]
 705:   48 ff cc                dec    rsp
 708:   88 04 24                mov    BYTE PTR [rsp], al
 70b:   66 5b                   pop    bx
 70d:   b9 08 00 00 00          mov    ecx, 0x8
 712:   48 31 c0                xor    rax, rax
 715:   86 f8                   xchg   al, bh
 717:   88 c2                   mov    dl, al
 719:   88 de                   mov    dh, bl
 71b:   48 83 e0 01             and    rax, 0x1
 71f:   48 83 e3 01             and    rbx, 0x1
 723:   40 8a bc 43 8f 1b 60 00         mov    dil, BYTE PTR [rbx+rax*2+0x601b8f]
 72b:   40 88 fe                mov    sil, dil
 72e:   40 d0 ee                shr    sil, 1
 731:   88 d0                   mov    al, dl
 733:   24 fe                   and    al, 0xfe
 735:   40 08 f0                or     al, sil
 738:   40 80 e7 01             and    dil, 0x1
 73c:   88 f3                   mov    bl, dh
 73e:   80 e3 fe                and    bl, 0xfe
 741:   40 08 fb                or     bl, dil
 744:   d0 c0                   rol    al, 1
 746:   d0 c3                   rol    bl, 1
 748:   e2 cd                   loop   0x717
 74a:   88 c7                   mov    bh, al
 74c:   66 c1 c3 08             rol    bx, 0x8
 750:   66 53                   push   bx
 752:   8a 04 24                mov    al, BYTE PTR [rsp]
 755:   ff c4                   inc    esp
 757:   a2 ef be ad de 00 00 00 00      movabs ds:secret[5], al
 760:   8a 04 24                mov    al, BYTE PTR [rsp]
 763:   ff c4                   inc    esp
 765:   a2 ef be ad de 00 00 00 00      movabs ds:secret[4], al
 76e:   a0 ef be ad de 00 00 00 00      movabs al, ds:secret[16]
 777:   48 ff cc                dec    rsp
 77a:   88 04 24                mov    BYTE PTR [rsp], al
 77d:   a0 ef be ad de 00 00 00 00      movabs al, ds:secret[17]
 786:   48 ff cc                dec    rsp
 789:   88 04 24                mov    BYTE PTR [rsp], al
 78c:   66 5b                   pop    bx
 78e:   b9 08 00 00 00          mov    ecx, 0x8
 793:   48 31 c0                xor    rax, rax
 796:   86 f8                   xchg   al, bh
 798:   88 c2                   mov    dl, al
 79a:   88 de                   mov    dh, bl
 79c:   48 83 e0 01             and    rax, 0x1
 7a0:   48 83 e3 01             and    rbx, 0x1
 7a4:   40 8a bc 43 8f 1b 60 00         mov    dil, BYTE PTR [rbx+rax*2+0x601b8f]
 7ac:   40 88 fe                mov    sil, dil
 7af:   40 d0 ee                shr    sil, 1
 7b2:   88 d0                   mov    al, dl
 7b4:   24 fe                   and    al, 0xfe
 7b6:   40 08 f0                or     al, sil
 7b9:   40 80 e7 01             and    dil, 0x1
 7bd:   88 f3                   mov    bl, dh
 7bf:   80 e3 fe                and    bl, 0xfe
 7c2:   40 08 fb                or     bl, dil
 7c5:   d0 c0                   rol    al, 1
 7c7:   d0 c3                   rol    bl, 1
 7c9:   e2 cd                   loop   0x798
 7cb:   88 c7                   mov    bh, al
 7cd:   66 c1 c3 08             rol    bx, 0x8
 7d1:   66 53                   push   bx
 7d3:   8a 04 24                mov    al, BYTE PTR [rsp]
 7d6:   ff c4                   inc    esp
 7d8:   a2 ef be ad de 00 00 00 00      movabs ds:secret[17], al
 7e1:   8a 04 24                mov    al, BYTE PTR [rsp]
 7e4:   ff c4                   inc    esp
 7e6:   a2 ef be ad de 00 00 00 00      movabs ds:secret[16], al
 7ef:   a0 ef be ad de 00 00 00 00      movabs al, ds:secret[14]
 7f8:   48 ff cc                dec    rsp
 7fb:   88 04 24                mov    BYTE PTR [rsp], al
 7fe:   a0 ef be ad de 00 00 00 00      movabs al, ds:secret[15]
 807:   48 ff cc                dec    rsp
 80a:   88 04 24                mov    BYTE PTR [rsp], al
 80d:   66 5b                   pop    bx
 80f:   b9 08 00 00 00          mov    ecx, 0x8
 814:   48 31 c0                xor    rax, rax
 817:   86 f8                   xchg   al, bh
 819:   88 c2                   mov    dl, al
 81b:   88 de                   mov    dh, bl
 81d:   48 83 e0 01             and    rax, 0x1
 821:   48 83 e3 01             and    rbx, 0x1
 825:   40 8a bc 43 8f 1b 60 00         mov    dil, BYTE PTR [rbx+rax*2+0x601b8f]
 82d:   40 88 fe                mov    sil, dil
 830:   40 d0 ee                shr    sil, 1
 833:   88 d0                   mov    al, dl
 835:   24 fe                   and    al, 0xfe
 837:   40 08 f0                or     al, sil
 83a:   40 80 e7 01             and    dil, 0x1
 83e:   88 f3                   mov    bl, dh
 840:   80 e3 fe                and    bl, 0xfe
 843:   40 08 fb                or     bl, dil
 846:   d0 c0                   rol    al, 1
 848:   d0 c3                   rol    bl, 1
 84a:   e2 cd                   loop   0x819
 84c:   88 c7                   mov    bh, al
 84e:   66 c1 c3 08             rol    bx, 0x8
 852:   66 53                   push   bx
 854:   8a 04 24                mov    al, BYTE PTR [rsp]
 857:   ff c4                   inc    esp
 859:   a2 ef be ad de 00 00 00 00      movabs ds:secret[15], al
 862:   8a 04 24                mov    al, BYTE PTR [rsp]
 865:   ff c4                   inc    esp
 867:   a2 ef be ad de 00 00 00 00      movabs ds:secret[14], al
 870:   a0 ef be ad de 00 00 00 00      movabs al, ds:secret[8]
 879:   48 ff cc                dec    rsp
 87c:   88 04 24                mov    BYTE PTR [rsp], al
 87f:   a0 ef be ad de 00 00 00 00      movabs al, ds:secret[9]
 888:   48 ff cc                dec    rsp
 88b:   88 04 24                mov    BYTE PTR [rsp], al
 88e:   66 5b                   pop    bx
 890:   b9 08 00 00 00          mov    ecx, 0x8
 895:   48 31 c0                xor    rax, rax
 898:   86 f8                   xchg   al, bh
 89a:   88 c2                   mov    dl, al
 89c:   88 de                   mov    dh, bl
 89e:   48 83 e0 01             and    rax, 0x1
 8a2:   48 83 e3 01             and    rbx, 0x1
 8a6:   40 8a bc 43 8f 1b 60 00         mov    dil, BYTE PTR [rbx+rax*2+0x601b8f]
 8ae:   40 88 fe                mov    sil, dil
 8b1:   40 d0 ee                shr    sil, 1
 8b4:   88 d0                   mov    al, dl
 8b6:   24 fe                   and    al, 0xfe
 8b8:   40 08 f0                or     al, sil
 8bb:   40 80 e7 01             and    dil, 0x1
 8bf:   88 f3                   mov    bl, dh
 8c1:   80 e3 fe                and    bl, 0xfe
 8c4:   40 08 fb                or     bl, dil
 8c7:   d0 c0                   rol    al, 1
 8c9:   d0 c3                   rol    bl, 1
 8cb:   e2 cd                   loop   0x89a
 8cd:   88 c7                   mov    bh, al
 8cf:   66 c1 c3 08             rol    bx, 0x8
 8d3:   66 53                   push   bx
 8d5:   8a 04 24                mov    al, BYTE PTR [rsp]
 8d8:   ff c4                   inc    esp
 8da:   a2 ef be ad de 00 00 00 00      movabs ds:secret[9], al
 8e3:   8a 04 24                mov    al, BYTE PTR [rsp]
 8e6:   ff c4                   inc    esp
 8e8:   a2 ef be ad de 00 00 00 00      movabs ds:secret[8], al
 8f1:   a0 ef be ad de 00 00 00 00      movabs al, ds:secret[20]
 8fa:   48 ff cc                dec    rsp
 8fd:   88 04 24                mov    BYTE PTR [rsp], al
 900:   a0 ef be ad de 00 00 00 00      movabs al, ds:secret[21]
 909:   48 ff cc                dec    rsp
 90c:   88 04 24                mov    BYTE PTR [rsp], al
 90f:   66 5b                   pop    bx
 911:   b9 08 00 00 00          mov    ecx, 0x8
 916:   48 31 c0                xor    rax, rax
 919:   86 f8                   xchg   al, bh
 91b:   88 c2                   mov    dl, al
 91d:   88 de                   mov    dh, bl
 91f:   48 83 e0 01             and    rax, 0x1
 923:   48 83 e3 01             and    rbx, 0x1
 927:   40 8a bc 43 8f 1b 60 00         mov    dil, BYTE PTR [rbx+rax*2+0x601b8f]
 92f:   40 88 fe                mov    sil, dil
 932:   40 d0 ee                shr    sil, 1
 935:   88 d0                   mov    al, dl
 937:   24 fe                   and    al, 0xfe
 939:   40 08 f0                or     al, sil
 93c:   40 80 e7 01             and    dil, 0x1
 940:   88 f3                   mov    bl, dh
 942:   80 e3 fe                and    bl, 0xfe
 945:   40 08 fb                or     bl, dil
 948:   d0 c0                   rol    al, 1
 94a:   d0 c3                   rol    bl, 1
 94c:   e2 cd                   loop   0x91b
 94e:   88 c7                   mov    bh, al
 950:   66 c1 c3 08             rol    bx, 0x8
 954:   66 53                   push   bx
 956:   8a 04 24                mov    al, BYTE PTR [rsp]
 959:   ff c4                   inc    esp
 95b:   a2 ef be ad de 00 00 00 00      movabs ds:secret[21], al
 964:   8a 04 24                mov    al, BYTE PTR [rsp]
 967:   ff c4                   inc    esp
 969:   a2 ef be ad de 00 00 00 00      movabs ds:secret[20], al
 972:   a0 ef be ad de 00 00 00 00      movabs al, ds:secret[18]
 97b:   48 ff cc                dec    rsp
 97e:   88 04 24                mov    BYTE PTR [rsp], al
 981:   a0 ef be ad de 00 00 00 00      movabs al, ds:secret[19]
 98a:   48 ff cc                dec    rsp
 98d:   88 04 24                mov    BYTE PTR [rsp], al
 990:   66 5b                   pop    bx
 992:   b9 08 00 00 00          mov    ecx, 0x8
 997:   48 31 c0                xor    rax, rax
 99a:   86 f8                   xchg   al, bh
 99c:   88 c2                   mov    dl, al
 99e:   88 de                   mov    dh, bl
 9a0:   48 83 e0 01             and    rax, 0x1
 9a4:   48 83 e3 01             and    rbx, 0x1
 9a8:   40 8a bc 43 8f 1b 60 00         mov    dil, BYTE PTR [rbx+rax*2+0x601b8f]
 9b0:   40 88 fe                mov    sil, dil
 9b3:   40 d0 ee                shr    sil, 1
 9b6:   88 d0                   mov    al, dl
 9b8:   24 fe                   and    al, 0xfe
 9ba:   40 08 f0                or     al, sil
 9bd:   40 80 e7 01             and    dil, 0x1
 9c1:   88 f3                   mov    bl, dh
 9c3:   80 e3 fe                and    bl, 0xfe
 9c6:   40 08 fb                or     bl, dil
 9c9:   d0 c0                   rol    al, 1
 9cb:   d0 c3                   rol    bl, 1
 9cd:   e2 cd                   loop   0x99c
 9cf:   88 c7                   mov    bh, al
 9d1:   66 c1 c3 08             rol    bx, 0x8
 9d5:   66 53                   push   bx
 9d7:   8a 04 24                mov    al, BYTE PTR [rsp]
 9da:   ff c4                   inc    esp
 9dc:   a2 ef be ad de 00 00 00 00      movabs ds:secret[19], al
 9e5:   8a 04 24                mov    al, BYTE PTR [rsp]
 9e8:   ff c4                   inc    esp
 9ea:   a2 ef be ad de 00 00 00 00      movabs ds:secret[18], al
 9f3:   a0 ef be ad de 00 00 00 00      movabs al, ds:secret[30]
 9fc:   48 ff cc                dec    rsp
 9ff:   88 04 24                mov    BYTE PTR [rsp], al
 a02:   a0 ef be ad de 00 00 00 00      movabs al, ds:secret[31]
 a0b:   48 ff cc                dec    rsp
 a0e:   88 04 24                mov    BYTE PTR [rsp], al
 a11:   66 5b                   pop    bx
 a13:   b9 08 00 00 00          mov    ecx, 0x8
 a18:   48 31 c0                xor    rax, rax
 a1b:   86 f8                   xchg   al, bh
 a1d:   88 c2                   mov    dl, al
 a1f:   88 de                   mov    dh, bl
 a21:   48 83 e0 01             and    rax, 0x1
 a25:   48 83 e3 01             and    rbx, 0x1
 a29:   40 8a bc 43 8f 1b 60 00         mov    dil, BYTE PTR [rbx+rax*2+0x601b8f]
 a31:   40 88 fe                mov    sil, dil
 a34:   40 d0 ee                shr    sil, 1
 a37:   88 d0                   mov    al, dl
 a39:   24 fe                   and    al, 0xfe
 a3b:   40 08 f0                or     al, sil
 a3e:   40 80 e7 01             and    dil, 0x1
 a42:   88 f3                   mov    bl, dh
 a44:   80 e3 fe                and    bl, 0xfe
 a47:   40 08 fb                or     bl, dil
 a4a:   d0 c0                   rol    al, 1
 a4c:   d0 c3                   rol    bl, 1
 a4e:   e2 cd                   loop   0xa1d
 a50:   88 c7                   mov    bh, al
 a52:   66 c1 c3 08             rol    bx, 0x8
 a56:   66 53                   push   bx
 a58:   8a 04 24                mov    al, BYTE PTR [rsp]
 a5b:   ff c4                   inc    esp
 a5d:   a2 ef be ad de 00 00 00 00      movabs ds:secret[31], al
 a66:   8a 04 24                mov    al, BYTE PTR [rsp]
 a69:   ff c4                   inc    esp
 a6b:   a2 ef be ad de 00 00 00 00      movabs ds:secret[30], al
 a74:   a0 ef be ad de 00 00 00 00      movabs al, ds:secret[2]
 a7d:   48 ff cc                dec    rsp
 a80:   88 04 24                mov    BYTE PTR [rsp], al
 a83:   a0 ef be ad de 00 00 00 00      movabs al, ds:secret[3]
 a8c:   48 ff cc                dec    rsp
 a8f:   88 04 24                mov    BYTE PTR [rsp], al
 a92:   66 5b                   pop    bx
 a94:   b9 08 00 00 00          mov    ecx, 0x8
 a99:   48 31 c0                xor    rax, rax
 a9c:   86 f8                   xchg   al, bh
 a9e:   88 c2                   mov    dl, al
 aa0:   88 de                   mov    dh, bl
 aa2:   48 83 e0 01             and    rax, 0x1
 aa6:   48 83 e3 01             and    rbx, 0x1
 aaa:   40 8a bc 43 8f 1b 60 00         mov    dil, BYTE PTR [rbx+rax*2+0x601b8f]
 ab2:   40 88 fe                mov    sil, dil
 ab5:   40 d0 ee                shr    sil, 1
 ab8:   88 d0                   mov    al, dl
 aba:   24 fe                   and    al, 0xfe
 abc:   40 08 f0                or     al, sil
 abf:   40 80 e7 01             and    dil, 0x1
 ac3:   88 f3                   mov    bl, dh
 ac5:   80 e3 fe                and    bl, 0xfe
 ac8:   40 08 fb                or     bl, dil
 acb:   d0 c0                   rol    al, 1
 acd:   d0 c3                   rol    bl, 1
 acf:   e2 cd                   loop   0xa9e
 ad1:   88 c7                   mov    bh, al
 ad3:   66 c1 c3 08             rol    bx, 0x8
 ad7:   66 53                   push   bx
 ad9:   8a 04 24                mov    al, BYTE PTR [rsp]
 adc:   ff c4                   inc    esp
 ade:   a2 ef be ad de 00 00 00 00      movabs ds:secret[3], al
 ae7:   8a 04 24                mov    al, BYTE PTR [rsp]
 aea:   ff c4                   inc    esp
 aec:   a2 ef be ad de 00 00 00 00      movabs ds:secret[2], al
 af5:   a0 ef be ad de 00 00 00 00      movabs al, ds:secret[10]
 afe:   48 ff cc                dec    rsp
 b01:   88 04 24                mov    BYTE PTR [rsp], al
 b04:   a0 ef be ad de 00 00 00 00      movabs al, ds:secret[11]
 b0d:   48 ff cc                dec    rsp
 b10:   88 04 24                mov    BYTE PTR [rsp], al
 b13:   66 5b                   pop    bx
 b15:   b9 08 00 00 00          mov    ecx, 0x8
 b1a:   48 31 c0                xor    rax, rax
 b1d:   86 f8                   xchg   al, bh
 b1f:   88 c2                   mov    dl, al
 b21:   88 de                   mov    dh, bl
 b23:   48 83 e0 01             and    rax, 0x1
 b27:   48 83 e3 01             and    rbx, 0x1
 b2b:   40 8a bc 43 8f 1b 60 00         mov    dil, BYTE PTR [rbx+rax*2+0x601b8f]
 b33:   40 88 fe                mov    sil, dil
 b36:   40 d0 ee                shr    sil, 1
 b39:   88 d0                   mov    al, dl
 b3b:   24 fe                   and    al, 0xfe
 b3d:   40 08 f0                or     al, sil
 b40:   40 80 e7 01             and    dil, 0x1
 b44:   88 f3                   mov    bl, dh
 b46:   80 e3 fe                and    bl, 0xfe
 b49:   40 08 fb                or     bl, dil
 b4c:   d0 c0                   rol    al, 1
 b4e:   d0 c3                   rol    bl, 1
 b50:   e2 cd                   loop   0xb1f
 b52:   88 c7                   mov    bh, al
 b54:   66 c1 c3 08             rol    bx, 0x8
 b58:   66 53                   push   bx
 b5a:   8a 04 24                mov    al, BYTE PTR [rsp]
 b5d:   ff c4                   inc    esp
 b5f:   a2 ef be ad de 00 00 00 00      movabs ds:secret[11], al
 b68:   8a 04 24                mov    al, BYTE PTR [rsp]
 b6b:   ff c4                   inc    esp
 b6d:   a2 ef be ad de 00 00 00 00      movabs ds:secret[10], al
 b76:   66 a1 ef be ad de 00 00 00 00   movabs ax, ds:secret[2]
 b80:   66 c1 c8 07             ror    ax, 0x7
 b84:   66 a3 ef be ad de 00 00 00 00   movabs ds:secret[2], ax
 b8e:   66 a1 ef be ad de 00 00 00 00   movabs ax, ds:secret[18]
 b98:   66 c1 c8 07             ror    ax, 0x7
 b9c:   66 a3 ef be ad de 00 00 00 00   movabs ds:secret[18], ax
 ba6:   66 a1 ef be ad de 00 00 00 00   movabs ax, ds:secret[22]
 bb0:   66 c1 c8 07             ror    ax, 0x7
 bb4:   66 a3 ef be ad de 00 00 00 00   movabs ds:secret[22], ax
 bbe:   66 a1 ef be ad de 00 00 00 00   movabs ax, ds:secret[4]
 bc8:   66 c1 c8 07             ror    ax, 0x7
 bcc:   66 a3 ef be ad de 00 00 00 00   movabs ds:secret[4], ax
 bd6:   66 a1 ef be ad de 00 00 00 00   movabs ax, ds:secret[0]
 be0:   66 c1 c8 07             ror    ax, 0x7
 be4:   66 a3 ef be ad de 00 00 00 00   movabs ds:secret[0], ax
 bee:   66 a1 ef be ad de 00 00 00 00   movabs ax, ds:secret[8]
 bf8:   66 c1 c8 07             ror    ax, 0x7
 bfc:   66 a3 ef be ad de 00 00 00 00   movabs ds:secret[8], ax
 c06:   66 a1 ef be ad de 00 00 00 00   movabs ax, ds:secret[14]
 c10:   66 c1 c8 07             ror    ax, 0x7
 c14:   66 a3 ef be ad de 00 00 00 00   movabs ds:secret[14], ax
 c1e:   66 a1 ef be ad de 00 00 00 00   movabs ax, ds:secret[20]
 c28:   66 c1 c8 07             ror    ax, 0x7
 c2c:   66 a3 ef be ad de 00 00 00 00   movabs ds:secret[20], ax
 c36:   66 a1 ef be ad de 00 00 00 00   movabs ax, ds:secret[16]
 c40:   66 c1 c8 07             ror    ax, 0x7
 c44:   66 a3 ef be ad de 00 00 00 00   movabs ds:secret[16], ax
 c4e:   66 a1 ef be ad de 00 00 00 00   movabs ax, ds:secret[24]
 c58:   66 c1 c8 07             ror    ax, 0x7
 c5c:   66 a3 ef be ad de 00 00 00 00   movabs ds:secret[24], ax
 c66:   66 a1 ef be ad de 00 00 00 00   movabs ax, ds:secret[28]
 c70:   66 c1 c8 07             ror    ax, 0x7
 c74:   66 a3 ef be ad de 00 00 00 00   movabs ds:secret[28], ax
 c7e:   66 a1 ef be ad de 00 00 00 00   movabs ax, ds:secret[30]
 c88:   66 c1 c8 07             ror    ax, 0x7
 c8c:   66 a3 ef be ad de 00 00 00 00   movabs ds:secret[30], ax
 c96:   66 a1 ef be ad de 00 00 00 00   movabs ax, ds:secret[10]
 ca0:   66 c1 c8 07             ror    ax, 0x7
 ca4:   66 a3 ef be ad de 00 00 00 00   movabs ds:secret[10], ax
 cae:   66 a1 ef be ad de 00 00 00 00   movabs ax, ds:secret[26]
 cb8:   66 c1 c8 07             ror    ax, 0x7
 cbc:   66 a3 ef be ad de 00 00 00 00   movabs ds:secret[26], ax
 cc6:   66 a1 ef be ad de 00 00 00 00   movabs ax, ds:secret[6]
 cd0:   66 c1 c8 07             ror    ax, 0x7
 cd4:   66 a3 ef be ad de 00 00 00 00   movabs ds:secret[6], ax
 cde:   66 a1 ef be ad de 00 00 00 00   movabs ax, ds:secret[12]
 ce8:   66 c1 c8 07             ror    ax, 0x7
 cec:   66 a3 ef be ad de 00 00 00 00   movabs ds:secret[12], ax


